
pho-mult-add.riscv:     file format elf64-littleriscv


Disassembly of section .text:

0000000080001048 <matrix_multiply>:
    80001048:	08050263          	beqz	a0,800010cc <matrix_multiply+0x84>
    8000104c:	ff010113          	addi	sp,sp,-16
    80001050:	00813423          	sd	s0,8(sp)
    80001054:	0005039b          	sext.w	t2,a0
    80001058:	00251f13          	slli	t5,a0,0x2
    8000105c:	00000413          	li	s0,0
    80001060:	0004029b          	sext.w	t0,s0
    80001064:	00058713          	mv	a4,a1
    80001068:	00000f93          	li	t6,0
    8000106c:	00229e13          	slli	t3,t0,0x2
    80001070:	01c68e33          	add	t3,a3,t3
    80001074:	000e2023          	sw	zero,0(t3)
    80001078:	00ef0eb3          	add	t4,t5,a4
    8000107c:	00060893          	mv	a7,a2
    80001080:	00000793          	li	a5,0
    80001084:	00072803          	lw	a6,0(a4)
    80001088:	0008a303          	lw	t1,0(a7)
    8000108c:	00470713          	addi	a4,a4,4
    80001090:	01e888b3          	add	a7,a7,t5
    80001094:	0268083b          	mulw	a6,a6,t1
    80001098:	00f807bb          	addw	a5,a6,a5
    8000109c:	00fe2023          	sw	a5,0(t3)
    800010a0:	feee92e3          	bne	t4,a4,80001084 <matrix_multiply+0x3c>
    800010a4:	001f8f93          	addi	t6,t6,1
    800010a8:	007282bb          	addw	t0,t0,t2
    800010ac:	000e8713          	mv	a4,t4
    800010b0:	fbf51ee3          	bne	a0,t6,8000106c <matrix_multiply+0x24>
    800010b4:	00140413          	addi	s0,s0,1
    800010b8:	00460613          	addi	a2,a2,4
    800010bc:	faa412e3          	bne	s0,a0,80001060 <matrix_multiply+0x18>
    800010c0:	00813403          	ld	s0,8(sp)
    800010c4:	01010113          	addi	sp,sp,16
    800010c8:	00008067          	ret
    800010cc:	00008067          	ret

00000000800010d0 <matrix_add>:
    800010d0:	04050463          	beqz	a0,80001118 <matrix_add+0x48>
    800010d4:	00050e1b          	sext.w	t3,a0
    800010d8:	00000e93          	li	t4,0
    800010dc:	000e889b          	sext.w	a7,t4
    800010e0:	00000813          	li	a6,0
    800010e4:	00289793          	slli	a5,a7,0x2
    800010e8:	00f58733          	add	a4,a1,a5
    800010ec:	00f60333          	add	t1,a2,a5
    800010f0:	00072703          	lw	a4,0(a4)
    800010f4:	00032303          	lw	t1,0(t1)
    800010f8:	00f687b3          	add	a5,a3,a5
    800010fc:	00180813          	addi	a6,a6,1
    80001100:	0067073b          	addw	a4,a4,t1
    80001104:	00e7a023          	sw	a4,0(a5)
    80001108:	01c888bb          	addw	a7,a7,t3
    8000110c:	fd051ce3          	bne	a0,a6,800010e4 <matrix_add+0x14>
    80001110:	001e8e93          	addi	t4,t4,1
    80001114:	fcae94e3          	bne	t4,a0,800010dc <matrix_add+0xc>
    80001118:	00008067          	ret

000000008000111c <matrix_print>:
    8000111c:	0c050463          	beqz	a0,800011e4 <matrix_print+0xc8>
    80001120:	fb010113          	addi	sp,sp,-80
    80001124:	04813023          	sd	s0,64(sp)
    80001128:	02913c23          	sd	s1,56(sp)
    8000112c:	03213823          	sd	s2,48(sp)
    80001130:	03313423          	sd	s3,40(sp)
    80001134:	03413023          	sd	s4,32(sp)
    80001138:	01513c23          	sd	s5,24(sp)
    8000113c:	01613823          	sd	s6,16(sp)
    80001140:	01713423          	sd	s7,8(sp)
    80001144:	04113423          	sd	ra,72(sp)
    80001148:	00058993          	mv	s3,a1
    8000114c:	00050913          	mv	s2,a0
    80001150:	fff50b13          	addi	s6,a0,-1
    80001154:	00060493          	mv	s1,a2
    80001158:	00000413          	li	s0,0
    8000115c:	00001a97          	auipc	s5,0x1
    80001160:	18ca8a93          	addi	s5,s5,396 # 800022e8 <input_cond+0x468>
    80001164:	00001a17          	auipc	s4,0x1
    80001168:	18ca0a13          	addi	s4,s4,396 # 800022f0 <input_cond+0x470>
    8000116c:	00001b97          	auipc	s7,0x1
    80001170:	18cb8b93          	addi	s7,s7,396 # 800022f8 <input_cond+0x478>
    80001174:	0004a583          	lw	a1,0(s1)
    80001178:	000a8513          	mv	a0,s5
    8000117c:	00448493          	addi	s1,s1,4
    80001180:	74c000ef          	jal	ra,800018cc <printf>
    80001184:	000a0513          	mv	a0,s4
    80001188:	008b0463          	beq	s6,s0,80001190 <matrix_print+0x74>
    8000118c:	740000ef          	jal	ra,800018cc <printf>
    80001190:	00140413          	addi	s0,s0,1
    80001194:	033477b3          	remu	a5,s0,s3
    80001198:	02078e63          	beqz	a5,800011d4 <matrix_print+0xb8>
    8000119c:	fd241ce3          	bne	s0,s2,80001174 <matrix_print+0x58>
    800011a0:	04013403          	ld	s0,64(sp)
    800011a4:	04813083          	ld	ra,72(sp)
    800011a8:	03813483          	ld	s1,56(sp)
    800011ac:	03013903          	ld	s2,48(sp)
    800011b0:	02813983          	ld	s3,40(sp)
    800011b4:	02013a03          	ld	s4,32(sp)
    800011b8:	01813a83          	ld	s5,24(sp)
    800011bc:	01013b03          	ld	s6,16(sp)
    800011c0:	00813b83          	ld	s7,8(sp)
    800011c4:	00001517          	auipc	a0,0x1
    800011c8:	13450513          	addi	a0,a0,308 # 800022f8 <input_cond+0x478>
    800011cc:	05010113          	addi	sp,sp,80
    800011d0:	6fc0006f          	j	800018cc <printf>
    800011d4:	000b8513          	mv	a0,s7
    800011d8:	6f4000ef          	jal	ra,800018cc <printf>
    800011dc:	f9241ce3          	bne	s0,s2,80001174 <matrix_print+0x58>
    800011e0:	fc1ff06f          	j	800011a0 <matrix_print+0x84>
    800011e4:	00001517          	auipc	a0,0x1
    800011e8:	11450513          	addi	a0,a0,276 # 800022f8 <input_cond+0x478>
    800011ec:	6e00006f          	j	800018cc <printf>

00000000800011f0 <matrix_copy>:
    800011f0:	02050063          	beqz	a0,80001210 <matrix_copy+0x20>
    800011f4:	00251513          	slli	a0,a0,0x2
    800011f8:	00a58533          	add	a0,a1,a0
    800011fc:	0005a783          	lw	a5,0(a1)
    80001200:	00460613          	addi	a2,a2,4
    80001204:	00458593          	addi	a1,a1,4
    80001208:	fef62e23          	sw	a5,-4(a2)
    8000120c:	fea598e3          	bne	a1,a0,800011fc <matrix_copy+0xc>
    80001210:	00008067          	ret

0000000080001214 <verify>:
    80001214:	02050e63          	beqz	a0,80001250 <verify+0x3c>
    80001218:	0005a703          	lw	a4,0(a1)
    8000121c:	00062783          	lw	a5,0(a2)
    80001220:	02f71c63          	bne	a4,a5,80001258 <verify+0x44>
    80001224:	00458593          	addi	a1,a1,4
    80001228:	00460613          	addi	a2,a2,4
    8000122c:	00000793          	li	a5,0
    80001230:	0180006f          	j	80001248 <verify+0x34>
    80001234:	0005a683          	lw	a3,0(a1)
    80001238:	00062703          	lw	a4,0(a2)
    8000123c:	00458593          	addi	a1,a1,4
    80001240:	00460613          	addi	a2,a2,4
    80001244:	00e69a63          	bne	a3,a4,80001258 <verify+0x44>
    80001248:	00178793          	addi	a5,a5,1
    8000124c:	fef514e3          	bne	a0,a5,80001234 <verify+0x20>
    80001250:	00000513          	li	a0,0
    80001254:	00008067          	ret
    80001258:	00100513          	li	a0,1
    8000125c:	00008067          	ret

0000000080001260 <vprintfmt>:
    80001260:	ea010113          	addi	sp,sp,-352
    80001264:	14813823          	sd	s0,336(sp)
    80001268:	14913423          	sd	s1,328(sp)
    8000126c:	15213023          	sd	s2,320(sp)
    80001270:	13413823          	sd	s4,304(sp)
    80001274:	13513423          	sd	s5,296(sp)
    80001278:	13613023          	sd	s6,288(sp)
    8000127c:	14113c23          	sd	ra,344(sp)
    80001280:	13313c23          	sd	s3,312(sp)
    80001284:	11713c23          	sd	s7,280(sp)
    80001288:	11813823          	sd	s8,272(sp)
    8000128c:	11913423          	sd	s9,264(sp)
    80001290:	00050913          	mv	s2,a0
    80001294:	00058493          	mv	s1,a1
    80001298:	00060413          	mv	s0,a2
    8000129c:	00068b13          	mv	s6,a3
    800012a0:	02500a13          	li	s4,37
    800012a4:	00001a97          	auipc	s5,0x1
    800012a8:	eeca8a93          	addi	s5,s5,-276 # 80002190 <input_cond+0x310>
    800012ac:	0140006f          	j	800012c0 <vprintfmt+0x60>
    800012b0:	06050063          	beqz	a0,80001310 <vprintfmt+0xb0>
    800012b4:	00048593          	mv	a1,s1
    800012b8:	00140413          	addi	s0,s0,1
    800012bc:	000900e7          	jalr	s2
    800012c0:	00044503          	lbu	a0,0(s0)
    800012c4:	ff4516e3          	bne	a0,s4,800012b0 <vprintfmt+0x50>
    800012c8:	00144683          	lbu	a3,1(s0)
    800012cc:	00140c93          	addi	s9,s0,1
    800012d0:	000c8713          	mv	a4,s9
    800012d4:	02000b93          	li	s7,32
    800012d8:	fff00993          	li	s3,-1
    800012dc:	fff00c13          	li	s8,-1
    800012e0:	00000593          	li	a1,0
    800012e4:	05500613          	li	a2,85
    800012e8:	00900513          	li	a0,9
    800012ec:	fdd6879b          	addiw	a5,a3,-35
    800012f0:	0ff7f793          	andi	a5,a5,255
    800012f4:	00170413          	addi	s0,a4,1
    800012f8:	2af66863          	bltu	a2,a5,800015a8 <vprintfmt+0x348>
    800012fc:	00279793          	slli	a5,a5,0x2
    80001300:	015787b3          	add	a5,a5,s5
    80001304:	0007a783          	lw	a5,0(a5)
    80001308:	015787b3          	add	a5,a5,s5
    8000130c:	00078067          	jr	a5
    80001310:	15813083          	ld	ra,344(sp)
    80001314:	15013403          	ld	s0,336(sp)
    80001318:	14813483          	ld	s1,328(sp)
    8000131c:	14013903          	ld	s2,320(sp)
    80001320:	13813983          	ld	s3,312(sp)
    80001324:	13013a03          	ld	s4,304(sp)
    80001328:	12813a83          	ld	s5,296(sp)
    8000132c:	12013b03          	ld	s6,288(sp)
    80001330:	11813b83          	ld	s7,280(sp)
    80001334:	11013c03          	ld	s8,272(sp)
    80001338:	10813c83          	ld	s9,264(sp)
    8000133c:	16010113          	addi	sp,sp,352
    80001340:	00008067          	ret
    80001344:	00800713          	li	a4,8
    80001348:	00100793          	li	a5,1
    8000134c:	008b0693          	addi	a3,s6,8
    80001350:	12b7d863          	ble	a1,a5,80001480 <vprintfmt+0x220>
    80001354:	000b3783          	ld	a5,0(s6)
    80001358:	00068b13          	mv	s6,a3
    8000135c:	02e7f6b3          	remu	a3,a5,a4
    80001360:	000b8b9b          	sext.w	s7,s7
    80001364:	00410613          	addi	a2,sp,4
    80001368:	00100993          	li	s3,1
    8000136c:	00d12023          	sw	a3,0(sp)
    80001370:	00e7f663          	bleu	a4,a5,8000137c <vprintfmt+0x11c>
    80001374:	2480006f          	j	800015bc <vprintfmt+0x35c>
    80001378:	000c8993          	mv	s3,s9
    8000137c:	02e7d7b3          	divu	a5,a5,a4
    80001380:	00460613          	addi	a2,a2,4
    80001384:	00198c9b          	addiw	s9,s3,1
    80001388:	02e7f6b3          	remu	a3,a5,a4
    8000138c:	fed62e23          	sw	a3,-4(a2)
    80001390:	fee7f4e3          	bleu	a4,a5,80001378 <vprintfmt+0x118>
    80001394:	018cde63          	ble	s8,s9,800013b0 <vprintfmt+0x150>
    80001398:	000c0c1b          	sext.w	s8,s8
    8000139c:	fffc0c1b          	addiw	s8,s8,-1
    800013a0:	00048593          	mv	a1,s1
    800013a4:	000b8513          	mv	a0,s7
    800013a8:	000900e7          	jalr	s2
    800013ac:	ff8cc8e3          	blt	s9,s8,8000139c <vprintfmt+0x13c>
    800013b0:	00299793          	slli	a5,s3,0x2
    800013b4:	10010713          	addi	a4,sp,256
    800013b8:	00f707b3          	add	a5,a4,a5
    800013bc:	f007a683          	lw	a3,-256(a5)
    800013c0:	fff98b9b          	addiw	s7,s3,-1
    800013c4:	002b9b93          	slli	s7,s7,0x2
    800013c8:	01710bb3          	add	s7,sp,s7
    800013cc:	00900c13          	li	s8,9
    800013d0:	0100006f          	j	800013e0 <vprintfmt+0x180>
    800013d4:	000ba683          	lw	a3,0(s7)
    800013d8:	fff98993          	addi	s3,s3,-1
    800013dc:	ffcb8b93          	addi	s7,s7,-4
    800013e0:	03000513          	li	a0,48
    800013e4:	00dc7463          	bleu	a3,s8,800013ec <vprintfmt+0x18c>
    800013e8:	05700513          	li	a0,87
    800013ec:	00048593          	mv	a1,s1
    800013f0:	00d5053b          	addw	a0,a0,a3
    800013f4:	000900e7          	jalr	s2
    800013f8:	0009879b          	sext.w	a5,s3
    800013fc:	fcf04ce3          	bgtz	a5,800013d4 <vprintfmt+0x174>
    80001400:	ec1ff06f          	j	800012c0 <vprintfmt+0x60>
    80001404:	03000513          	li	a0,48
    80001408:	00048593          	mv	a1,s1
    8000140c:	000900e7          	jalr	s2
    80001410:	00048593          	mv	a1,s1
    80001414:	07800513          	li	a0,120
    80001418:	000900e7          	jalr	s2
    8000141c:	008b0693          	addi	a3,s6,8
    80001420:	01000713          	li	a4,16
    80001424:	f31ff06f          	j	80001354 <vprintfmt+0xf4>
    80001428:	000b3c83          	ld	s9,0(s6)
    8000142c:	008b0b13          	addi	s6,s6,8
    80001430:	200c8c63          	beqz	s9,80001648 <vprintfmt+0x3e8>
    80001434:	1b805463          	blez	s8,800015dc <vprintfmt+0x37c>
    80001438:	02d00793          	li	a5,45
    8000143c:	1efb8e63          	beq	s7,a5,80001638 <vprintfmt+0x3d8>
    80001440:	000c059b          	sext.w	a1,s8
    80001444:	20098e63          	beqz	s3,80001660 <vprintfmt+0x400>
    80001448:	000cc783          	lbu	a5,0(s9)
    8000144c:	20078a63          	beqz	a5,80001660 <vprintfmt+0x400>
    80001450:	001c8793          	addi	a5,s9,1
    80001454:	013c8633          	add	a2,s9,s3
    80001458:	24f60463          	beq	a2,a5,800016a0 <vprintfmt+0x440>
    8000145c:	00178713          	addi	a4,a5,1
    80001460:	fff74683          	lbu	a3,-1(a4)
    80001464:	16068663          	beqz	a3,800015d0 <vprintfmt+0x370>
    80001468:	00070793          	mv	a5,a4
    8000146c:	fedff06f          	j	80001458 <vprintfmt+0x1f8>
    80001470:	00100793          	li	a5,1
    80001474:	00a00713          	li	a4,10
    80001478:	008b0693          	addi	a3,s6,8
    8000147c:	ecb7cce3          	blt	a5,a1,80001354 <vprintfmt+0xf4>
    80001480:	ec059ae3          	bnez	a1,80001354 <vprintfmt+0xf4>
    80001484:	000b6783          	lwu	a5,0(s6)
    80001488:	00068b13          	mv	s6,a3
    8000148c:	ed1ff06f          	j	8000135c <vprintfmt+0xfc>
    80001490:	00174683          	lbu	a3,1(a4)
    80001494:	00040713          	mv	a4,s0
    80001498:	e55ff06f          	j	800012ec <vprintfmt+0x8c>
    8000149c:	00048593          	mv	a1,s1
    800014a0:	02500513          	li	a0,37
    800014a4:	000900e7          	jalr	s2
    800014a8:	e19ff06f          	j	800012c0 <vprintfmt+0x60>
    800014ac:	01000713          	li	a4,16
    800014b0:	e99ff06f          	j	80001348 <vprintfmt+0xe8>
    800014b4:	000b2983          	lw	s3,0(s6)
    800014b8:	00174683          	lbu	a3,1(a4)
    800014bc:	008b0b13          	addi	s6,s6,8
    800014c0:	00040713          	mv	a4,s0
    800014c4:	e20c54e3          	bgez	s8,800012ec <vprintfmt+0x8c>
    800014c8:	00098c13          	mv	s8,s3
    800014cc:	fff00993          	li	s3,-1
    800014d0:	e1dff06f          	j	800012ec <vprintfmt+0x8c>
    800014d4:	00174683          	lbu	a3,1(a4)
    800014d8:	02d00b93          	li	s7,45
    800014dc:	00040713          	mv	a4,s0
    800014e0:	e0dff06f          	j	800012ec <vprintfmt+0x8c>
    800014e4:	fffc4793          	not	a5,s8
    800014e8:	43f7d793          	srai	a5,a5,0x3f
    800014ec:	00fc7c33          	and	s8,s8,a5
    800014f0:	00174683          	lbu	a3,1(a4)
    800014f4:	000c0c1b          	sext.w	s8,s8
    800014f8:	00040713          	mv	a4,s0
    800014fc:	df1ff06f          	j	800012ec <vprintfmt+0x8c>
    80001500:	00174683          	lbu	a3,1(a4)
    80001504:	03000b93          	li	s7,48
    80001508:	00040713          	mv	a4,s0
    8000150c:	de1ff06f          	j	800012ec <vprintfmt+0x8c>
    80001510:	fd06899b          	addiw	s3,a3,-48
    80001514:	00174683          	lbu	a3,1(a4)
    80001518:	00040713          	mv	a4,s0
    8000151c:	fd06879b          	addiw	a5,a3,-48
    80001520:	0006881b          	sext.w	a6,a3
    80001524:	faf560e3          	bltu	a0,a5,800014c4 <vprintfmt+0x264>
    80001528:	00170713          	addi	a4,a4,1
    8000152c:	0029979b          	slliw	a5,s3,0x2
    80001530:	00074683          	lbu	a3,0(a4)
    80001534:	013789bb          	addw	s3,a5,s3
    80001538:	0019999b          	slliw	s3,s3,0x1
    8000153c:	010989bb          	addw	s3,s3,a6
    80001540:	fd06879b          	addiw	a5,a3,-48
    80001544:	fd09899b          	addiw	s3,s3,-48
    80001548:	0006881b          	sext.w	a6,a3
    8000154c:	fcf57ee3          	bleu	a5,a0,80001528 <vprintfmt+0x2c8>
    80001550:	f75ff06f          	j	800014c4 <vprintfmt+0x264>
    80001554:	000b2503          	lw	a0,0(s6)
    80001558:	00048593          	mv	a1,s1
    8000155c:	008b0b13          	addi	s6,s6,8
    80001560:	000900e7          	jalr	s2
    80001564:	d5dff06f          	j	800012c0 <vprintfmt+0x60>
    80001568:	00100793          	li	a5,1
    8000156c:	008b0c93          	addi	s9,s6,8
    80001570:	0ab7de63          	ble	a1,a5,8000162c <vprintfmt+0x3cc>
    80001574:	000b3983          	ld	s3,0(s6)
    80001578:	1009d263          	bgez	s3,8000167c <vprintfmt+0x41c>
    8000157c:	00048593          	mv	a1,s1
    80001580:	02d00513          	li	a0,45
    80001584:	000900e7          	jalr	s2
    80001588:	000c8b13          	mv	s6,s9
    8000158c:	413007b3          	neg	a5,s3
    80001590:	00a00713          	li	a4,10
    80001594:	dc9ff06f          	j	8000135c <vprintfmt+0xfc>
    80001598:	00174683          	lbu	a3,1(a4)
    8000159c:	0015859b          	addiw	a1,a1,1
    800015a0:	00040713          	mv	a4,s0
    800015a4:	d49ff06f          	j	800012ec <vprintfmt+0x8c>
    800015a8:	00048593          	mv	a1,s1
    800015ac:	02500513          	li	a0,37
    800015b0:	000900e7          	jalr	s2
    800015b4:	000c8413          	mv	s0,s9
    800015b8:	d09ff06f          	j	800012c0 <vprintfmt+0x60>
    800015bc:	00100793          	li	a5,1
    800015c0:	00000993          	li	s3,0
    800015c4:	00100c93          	li	s9,1
    800015c8:	dd87c8e3          	blt	a5,s8,80001398 <vprintfmt+0x138>
    800015cc:	df5ff06f          	j	800013c0 <vprintfmt+0x160>
    800015d0:	41978c33          	sub	s8,a5,s9
    800015d4:	41858c3b          	subw	s8,a1,s8
    800015d8:	09804463          	bgtz	s8,80001660 <vprintfmt+0x400>
    800015dc:	000cc503          	lbu	a0,0(s9)
    800015e0:	ce0500e3          	beqz	a0,800012c0 <vprintfmt+0x60>
    800015e4:	fff00b93          	li	s7,-1
    800015e8:	0209dc63          	bgez	s3,80001620 <vprintfmt+0x3c0>
    800015ec:	00048593          	mv	a1,s1
    800015f0:	001c8c93          	addi	s9,s9,1
    800015f4:	000900e7          	jalr	s2
    800015f8:	000cc503          	lbu	a0,0(s9)
    800015fc:	fffc0c1b          	addiw	s8,s8,-1
    80001600:	fe0514e3          	bnez	a0,800015e8 <vprintfmt+0x388>
    80001604:	cb805ee3          	blez	s8,800012c0 <vprintfmt+0x60>
    80001608:	fffc0c1b          	addiw	s8,s8,-1
    8000160c:	00048593          	mv	a1,s1
    80001610:	02000513          	li	a0,32
    80001614:	000900e7          	jalr	s2
    80001618:	fe0c18e3          	bnez	s8,80001608 <vprintfmt+0x3a8>
    8000161c:	ca5ff06f          	j	800012c0 <vprintfmt+0x60>
    80001620:	fff9899b          	addiw	s3,s3,-1
    80001624:	fd7994e3          	bne	s3,s7,800015ec <vprintfmt+0x38c>
    80001628:	fddff06f          	j	80001604 <vprintfmt+0x3a4>
    8000162c:	f40594e3          	bnez	a1,80001574 <vprintfmt+0x314>
    80001630:	000b2983          	lw	s3,0(s6)
    80001634:	f45ff06f          	j	80001578 <vprintfmt+0x318>
    80001638:	000cc503          	lbu	a0,0(s9)
    8000163c:	fc0506e3          	beqz	a0,80001608 <vprintfmt+0x3a8>
    80001640:	fff00b93          	li	s7,-1
    80001644:	fa5ff06f          	j	800015e8 <vprintfmt+0x388>
    80001648:	05805263          	blez	s8,8000168c <vprintfmt+0x42c>
    8000164c:	02d00793          	li	a5,45
    80001650:	02fb8e63          	beq	s7,a5,8000168c <vprintfmt+0x42c>
    80001654:	00001c97          	auipc	s9,0x1
    80001658:	cacc8c93          	addi	s9,s9,-852 # 80002300 <input_cond+0x480>
    8000165c:	de5ff06f          	j	80001440 <vprintfmt+0x1e0>
    80001660:	000b8b9b          	sext.w	s7,s7
    80001664:	fffc0c1b          	addiw	s8,s8,-1
    80001668:	00048593          	mv	a1,s1
    8000166c:	000b8513          	mv	a0,s7
    80001670:	000900e7          	jalr	s2
    80001674:	fe0c18e3          	bnez	s8,80001664 <vprintfmt+0x404>
    80001678:	f65ff06f          	j	800015dc <vprintfmt+0x37c>
    8000167c:	00098793          	mv	a5,s3
    80001680:	000c8b13          	mv	s6,s9
    80001684:	00a00713          	li	a4,10
    80001688:	cd5ff06f          	j	8000135c <vprintfmt+0xfc>
    8000168c:	00001c97          	auipc	s9,0x1
    80001690:	c74c8c93          	addi	s9,s9,-908 # 80002300 <input_cond+0x480>
    80001694:	02800513          	li	a0,40
    80001698:	fff00b93          	li	s7,-1
    8000169c:	f4dff06f          	j	800015e8 <vprintfmt+0x388>
    800016a0:	41960c33          	sub	s8,a2,s9
    800016a4:	41858c3b          	subw	s8,a1,s8
    800016a8:	fb804ce3          	bgtz	s8,80001660 <vprintfmt+0x400>
    800016ac:	f31ff06f          	j	800015dc <vprintfmt+0x37c>

00000000800016b0 <sprintf_putch.2952>:
    800016b0:	0005b783          	ld	a5,0(a1)
    800016b4:	00a78023          	sb	a0,0(a5)
    800016b8:	0005b783          	ld	a5,0(a1)
    800016bc:	00178793          	addi	a5,a5,1
    800016c0:	00f5b023          	sd	a5,0(a1)
    800016c4:	00008067          	ret

00000000800016c8 <putchar>:
    800016c8:	04022803          	lw	a6,64(tp) # 40 <buflen.2838>
    800016cc:	00020793          	mv	a5,tp
    800016d0:	010787b3          	add	a5,a5,a6
    800016d4:	f8010113          	addi	sp,sp,-128
    800016d8:	0018069b          	addiw	a3,a6,1
    800016dc:	04d22023          	sw	a3,64(tp) # 40 <buflen.2838>
    800016e0:	00a78023          	sb	a0,0(a5)
    800016e4:	03f10713          	addi	a4,sp,63
    800016e8:	00a00793          	li	a5,10
    800016ec:	fc077713          	andi	a4,a4,-64
    800016f0:	00f50c63          	beq	a0,a5,80001708 <putchar+0x40>
    800016f4:	04000793          	li	a5,64
    800016f8:	00f68863          	beq	a3,a5,80001708 <putchar+0x40>
    800016fc:	00000513          	li	a0,0
    80001700:	08010113          	addi	sp,sp,128
    80001704:	00008067          	ret
    80001708:	04000793          	li	a5,64
    8000170c:	00f73023          	sd	a5,0(a4)
    80001710:	00100793          	li	a5,1
    80001714:	00f73423          	sd	a5,8(a4)
    80001718:	00020613          	mv	a2,tp
    8000171c:	00c73823          	sd	a2,16(a4)
    80001720:	00d73c23          	sd	a3,24(a4)
    80001724:	0ff0000f          	fence
    80001728:	00000797          	auipc	a5,0x0
    8000172c:	8ce7bc23          	sd	a4,-1832(a5) # 80001000 <tohost>
    80001730:	00000697          	auipc	a3,0x0
    80001734:	91068693          	addi	a3,a3,-1776 # 80001040 <fromhost>
    80001738:	0006b783          	ld	a5,0(a3)
    8000173c:	fe078ee3          	beqz	a5,80001738 <putchar+0x70>
    80001740:	00000797          	auipc	a5,0x0
    80001744:	9007b023          	sd	zero,-1792(a5) # 80001040 <fromhost>
    80001748:	0ff0000f          	fence
    8000174c:	04022023          	sw	zero,64(tp) # 40 <buflen.2838>
    80001750:	00073783          	ld	a5,0(a4)
    80001754:	00000513          	li	a0,0
    80001758:	08010113          	addi	sp,sp,128
    8000175c:	00008067          	ret

0000000080001760 <setStats>:
    80001760:	b00027f3          	csrr	a5,mcycle
    80001764:	e2018713          	addi	a4,gp,-480 # 80003298 <counters>
    80001768:	00051c63          	bnez	a0,80001780 <setStats+0x20>
    8000176c:	00073683          	ld	a3,0(a4)
    80001770:	00001617          	auipc	a2,0x1
    80001774:	b9860613          	addi	a2,a2,-1128 # 80002308 <input_cond+0x488>
    80001778:	e2c1b823          	sd	a2,-464(gp) # 800032a8 <counter_names>
    8000177c:	40d787b3          	sub	a5,a5,a3
    80001780:	e2f1b023          	sd	a5,-480(gp) # 80003298 <counters>
    80001784:	b02027f3          	csrr	a5,minstret
    80001788:	00051c63          	bnez	a0,800017a0 <setStats+0x40>
    8000178c:	00873703          	ld	a4,8(a4)
    80001790:	00001697          	auipc	a3,0x1
    80001794:	b8068693          	addi	a3,a3,-1152 # 80002310 <input_cond+0x490>
    80001798:	e2d1bc23          	sd	a3,-456(gp) # 800032b0 <counter_names+0x8>
    8000179c:	40e787b3          	sub	a5,a5,a4
    800017a0:	e2f1b423          	sd	a5,-472(gp) # 800032a0 <counters+0x8>
    800017a4:	00008067          	ret

00000000800017a8 <tohost_exit>:
    800017a8:	00151793          	slli	a5,a0,0x1
    800017ac:	0017e793          	ori	a5,a5,1
    800017b0:	00000717          	auipc	a4,0x0
    800017b4:	84f73823          	sd	a5,-1968(a4) # 80001000 <tohost>
    800017b8:	0000006f          	j	800017b8 <tohost_exit+0x10>

00000000800017bc <handle_trap>:
    800017bc:	000017b7          	lui	a5,0x1
    800017c0:	a7378793          	addi	a5,a5,-1421 # a73 <_tbss_end+0xa2f>
    800017c4:	00000717          	auipc	a4,0x0
    800017c8:	82f73e23          	sd	a5,-1988(a4) # 80001000 <tohost>
    800017cc:	0000006f          	j	800017cc <handle_trap+0x10>

00000000800017d0 <exit>:
    800017d0:	ff010113          	addi	sp,sp,-16
    800017d4:	00113423          	sd	ra,8(sp)
    800017d8:	fd1ff0ef          	jal	ra,800017a8 <tohost_exit>

00000000800017dc <abort>:
    800017dc:	10d00793          	li	a5,269
    800017e0:	00000717          	auipc	a4,0x0
    800017e4:	82f73023          	sd	a5,-2016(a4) # 80001000 <tohost>
    800017e8:	0000006f          	j	800017e8 <abort+0xc>

00000000800017ec <printstr>:
    800017ec:	00054783          	lbu	a5,0(a0)
    800017f0:	f8010113          	addi	sp,sp,-128
    800017f4:	03f10713          	addi	a4,sp,63
    800017f8:	00050693          	mv	a3,a0
    800017fc:	fc077713          	andi	a4,a4,-64
    80001800:	06078263          	beqz	a5,80001864 <printstr+0x78>
    80001804:	00050613          	mv	a2,a0
    80001808:	00150513          	addi	a0,a0,1
    8000180c:	00054783          	lbu	a5,0(a0)
    80001810:	fe079ce3          	bnez	a5,80001808 <printstr+0x1c>
    80001814:	40c50533          	sub	a0,a0,a2
    80001818:	04000793          	li	a5,64
    8000181c:	00f73023          	sd	a5,0(a4)
    80001820:	00100793          	li	a5,1
    80001824:	00f73423          	sd	a5,8(a4)
    80001828:	00d73823          	sd	a3,16(a4)
    8000182c:	00a73c23          	sd	a0,24(a4)
    80001830:	0ff0000f          	fence
    80001834:	fffff797          	auipc	a5,0xfffff
    80001838:	7ce7b623          	sd	a4,1996(a5) # 80001000 <tohost>
    8000183c:	00000697          	auipc	a3,0x0
    80001840:	80468693          	addi	a3,a3,-2044 # 80001040 <fromhost>
    80001844:	0006b783          	ld	a5,0(a3)
    80001848:	fe078ee3          	beqz	a5,80001844 <printstr+0x58>
    8000184c:	fffff797          	auipc	a5,0xfffff
    80001850:	7e07ba23          	sd	zero,2036(a5) # 80001040 <fromhost>
    80001854:	0ff0000f          	fence
    80001858:	00073783          	ld	a5,0(a4)
    8000185c:	08010113          	addi	sp,sp,128
    80001860:	00008067          	ret
    80001864:	00000513          	li	a0,0
    80001868:	fb1ff06f          	j	80001818 <printstr+0x2c>

000000008000186c <thread_entry>:
    8000186c:	00050463          	beqz	a0,80001874 <thread_entry+0x8>
    80001870:	0000006f          	j	80001870 <thread_entry+0x4>
    80001874:	00008067          	ret

0000000080001878 <printhex>:
    80001878:	fd010113          	addi	sp,sp,-48
    8000187c:	02113423          	sd	ra,40(sp)
    80001880:	01710713          	addi	a4,sp,23
    80001884:	00710813          	addi	a6,sp,7
    80001888:	00900593          	li	a1,9
    8000188c:	00f57793          	andi	a5,a0,15
    80001890:	03000613          	li	a2,48
    80001894:	0ff7f693          	andi	a3,a5,255
    80001898:	00f5f463          	bleu	a5,a1,800018a0 <printhex+0x28>
    8000189c:	05700613          	li	a2,87
    800018a0:	00c687bb          	addw	a5,a3,a2
    800018a4:	00f70023          	sb	a5,0(a4)
    800018a8:	fff70713          	addi	a4,a4,-1
    800018ac:	00455513          	srli	a0,a0,0x4
    800018b0:	fce81ee3          	bne	a6,a4,8000188c <printhex+0x14>
    800018b4:	00810513          	addi	a0,sp,8
    800018b8:	00010c23          	sb	zero,24(sp)
    800018bc:	f31ff0ef          	jal	ra,800017ec <printstr>
    800018c0:	02813083          	ld	ra,40(sp)
    800018c4:	03010113          	addi	sp,sp,48
    800018c8:	00008067          	ret

00000000800018cc <printf>:
    800018cc:	fa010113          	addi	sp,sp,-96
    800018d0:	02810313          	addi	t1,sp,40
    800018d4:	02b13423          	sd	a1,40(sp)
    800018d8:	02c13823          	sd	a2,48(sp)
    800018dc:	02d13c23          	sd	a3,56(sp)
    800018e0:	00050613          	mv	a2,a0
    800018e4:	00030693          	mv	a3,t1
    800018e8:	00000517          	auipc	a0,0x0
    800018ec:	de050513          	addi	a0,a0,-544 # 800016c8 <putchar>
    800018f0:	00000593          	li	a1,0
    800018f4:	00113c23          	sd	ra,24(sp)
    800018f8:	04e13023          	sd	a4,64(sp)
    800018fc:	04f13423          	sd	a5,72(sp)
    80001900:	05013823          	sd	a6,80(sp)
    80001904:	05113c23          	sd	a7,88(sp)
    80001908:	00613423          	sd	t1,8(sp)
    8000190c:	955ff0ef          	jal	ra,80001260 <vprintfmt>
    80001910:	01813083          	ld	ra,24(sp)
    80001914:	00000513          	li	a0,0
    80001918:	06010113          	addi	sp,sp,96
    8000191c:	00008067          	ret

0000000080001920 <sprintf>:
    80001920:	fa010113          	addi	sp,sp,-96
    80001924:	03010313          	addi	t1,sp,48
    80001928:	02813023          	sd	s0,32(sp)
    8000192c:	00a13423          	sd	a0,8(sp)
    80001930:	02c13823          	sd	a2,48(sp)
    80001934:	02d13c23          	sd	a3,56(sp)
    80001938:	00050413          	mv	s0,a0
    8000193c:	00058613          	mv	a2,a1
    80001940:	00000517          	auipc	a0,0x0
    80001944:	d7050513          	addi	a0,a0,-656 # 800016b0 <sprintf_putch.2952>
    80001948:	00810593          	addi	a1,sp,8
    8000194c:	00030693          	mv	a3,t1
    80001950:	02113423          	sd	ra,40(sp)
    80001954:	04f13423          	sd	a5,72(sp)
    80001958:	04e13023          	sd	a4,64(sp)
    8000195c:	05013823          	sd	a6,80(sp)
    80001960:	05113c23          	sd	a7,88(sp)
    80001964:	00613c23          	sd	t1,24(sp)
    80001968:	8f9ff0ef          	jal	ra,80001260 <vprintfmt>
    8000196c:	00813783          	ld	a5,8(sp)
    80001970:	00078023          	sb	zero,0(a5)
    80001974:	00813503          	ld	a0,8(sp)
    80001978:	02813083          	ld	ra,40(sp)
    8000197c:	4085053b          	subw	a0,a0,s0
    80001980:	02013403          	ld	s0,32(sp)
    80001984:	06010113          	addi	sp,sp,96
    80001988:	00008067          	ret

000000008000198c <memcpy>:
    8000198c:	00c5e7b3          	or	a5,a1,a2
    80001990:	00f567b3          	or	a5,a0,a5
    80001994:	0077f793          	andi	a5,a5,7
    80001998:	00c506b3          	add	a3,a0,a2
    8000199c:	02078463          	beqz	a5,800019c4 <memcpy+0x38>
    800019a0:	00c58633          	add	a2,a1,a2
    800019a4:	00050793          	mv	a5,a0
    800019a8:	02d57e63          	bleu	a3,a0,800019e4 <memcpy+0x58>
    800019ac:	00158593          	addi	a1,a1,1
    800019b0:	fff5c703          	lbu	a4,-1(a1)
    800019b4:	00178793          	addi	a5,a5,1
    800019b8:	fee78fa3          	sb	a4,-1(a5)
    800019bc:	feb618e3          	bne	a2,a1,800019ac <memcpy+0x20>
    800019c0:	00008067          	ret
    800019c4:	fed57ee3          	bleu	a3,a0,800019c0 <memcpy+0x34>
    800019c8:	00050793          	mv	a5,a0
    800019cc:	00858593          	addi	a1,a1,8
    800019d0:	ff85b703          	ld	a4,-8(a1)
    800019d4:	00878793          	addi	a5,a5,8
    800019d8:	fee7bc23          	sd	a4,-8(a5)
    800019dc:	fed7e8e3          	bltu	a5,a3,800019cc <memcpy+0x40>
    800019e0:	00008067          	ret
    800019e4:	00008067          	ret

00000000800019e8 <memset>:
    800019e8:	00c567b3          	or	a5,a0,a2
    800019ec:	0077f793          	andi	a5,a5,7
    800019f0:	00c50633          	add	a2,a0,a2
    800019f4:	0ff5f593          	andi	a1,a1,255
    800019f8:	00078e63          	beqz	a5,80001a14 <memset+0x2c>
    800019fc:	00050793          	mv	a5,a0
    80001a00:	04c57263          	bleu	a2,a0,80001a44 <memset+0x5c>
    80001a04:	00178793          	addi	a5,a5,1
    80001a08:	feb78fa3          	sb	a1,-1(a5)
    80001a0c:	fef61ce3          	bne	a2,a5,80001a04 <memset+0x1c>
    80001a10:	00008067          	ret
    80001a14:	00859793          	slli	a5,a1,0x8
    80001a18:	00f5e7b3          	or	a5,a1,a5
    80001a1c:	01079593          	slli	a1,a5,0x10
    80001a20:	00b7e7b3          	or	a5,a5,a1
    80001a24:	02079713          	slli	a4,a5,0x20
    80001a28:	00e7e7b3          	or	a5,a5,a4
    80001a2c:	fec572e3          	bleu	a2,a0,80001a10 <memset+0x28>
    80001a30:	00050713          	mv	a4,a0
    80001a34:	00870713          	addi	a4,a4,8
    80001a38:	fef73c23          	sd	a5,-8(a4)
    80001a3c:	fec76ce3          	bltu	a4,a2,80001a34 <memset+0x4c>
    80001a40:	00008067          	ret
    80001a44:	00008067          	ret

0000000080001a48 <_init>:
    80001a48:	f4010113          	addi	sp,sp,-192
    80001a4c:	0a813823          	sd	s0,176(sp)
    80001a50:	0a913423          	sd	s1,168(sp)
    80001a54:	00020493          	mv	s1,tp
    80001a58:	00020413          	mv	s0,tp
    80001a5c:	40848433          	sub	s0,s1,s0
    80001a60:	00040613          	mv	a2,s0
    80001a64:	09313c23          	sd	s3,152(sp)
    80001a68:	09413823          	sd	s4,144(sp)
    80001a6c:	00050993          	mv	s3,a0
    80001a70:	00058a13          	mv	s4,a1
    80001a74:	00020513          	mv	a0,tp
    80001a78:	e4818593          	addi	a1,gp,-440 # 800032c0 <_end>
    80001a7c:	0a113c23          	sd	ra,184(sp)
    80001a80:	0b213023          	sd	s2,160(sp)
    80001a84:	09513423          	sd	s5,136(sp)
    80001a88:	00020a93          	mv	s5,tp
    80001a8c:	f01ff0ef          	jal	ra,8000198c <memcpy>
    80001a90:	04420613          	addi	a2,tp,68 # 44 <_tbss_end>
    80001a94:	40960633          	sub	a2,a2,s1
    80001a98:	00000593          	li	a1,0
    80001a9c:	008a8533          	add	a0,s5,s0
    80001aa0:	f49ff0ef          	jal	ra,800019e8 <memset>
    80001aa4:	00098513          	mv	a0,s3
    80001aa8:	000a0593          	mv	a1,s4
    80001aac:	dc1ff0ef          	jal	ra,8000186c <thread_entry>
    80001ab0:	00000593          	li	a1,0
    80001ab4:	00000513          	li	a0,0
    80001ab8:	1ac000ef          	jal	ra,80001c64 <main>
    80001abc:	e2018413          	addi	s0,gp,-480 # 80003298 <counters>
    80001ac0:	00043683          	ld	a3,0(s0)
    80001ac4:	03f10913          	addi	s2,sp,63
    80001ac8:	fc097913          	andi	s2,s2,-64
    80001acc:	00050993          	mv	s3,a0
    80001ad0:	04069063          	bnez	a3,80001b10 <_init+0xc8>
    80001ad4:	00843683          	ld	a3,8(s0)
    80001ad8:	00069663          	bnez	a3,80001ae4 <_init+0x9c>
    80001adc:	00098513          	mv	a0,s3
    80001ae0:	cc9ff0ef          	jal	ra,800017a8 <tohost_exit>
    80001ae4:	00090493          	mv	s1,s2
    80001ae8:	01843603          	ld	a2,24(s0)
    80001aec:	00048513          	mv	a0,s1
    80001af0:	00001597          	auipc	a1,0x1
    80001af4:	84858593          	addi	a1,a1,-1976 # 80002338 <input_cond+0x4b8>
    80001af8:	e29ff0ef          	jal	ra,80001920 <sprintf>
    80001afc:	00a484b3          	add	s1,s1,a0
    80001b00:	fc990ee3          	beq	s2,s1,80001adc <_init+0x94>
    80001b04:	00090513          	mv	a0,s2
    80001b08:	ce5ff0ef          	jal	ra,800017ec <printstr>
    80001b0c:	fd1ff06f          	j	80001adc <_init+0x94>
    80001b10:	01043603          	ld	a2,16(s0)
    80001b14:	00001597          	auipc	a1,0x1
    80001b18:	82458593          	addi	a1,a1,-2012 # 80002338 <input_cond+0x4b8>
    80001b1c:	00090513          	mv	a0,s2
    80001b20:	e01ff0ef          	jal	ra,80001920 <sprintf>
    80001b24:	00843683          	ld	a3,8(s0)
    80001b28:	00a904b3          	add	s1,s2,a0
    80001b2c:	fc068ae3          	beqz	a3,80001b00 <_init+0xb8>
    80001b30:	fb9ff06f          	j	80001ae8 <_init+0xa0>

0000000080001b34 <strlen>:
    80001b34:	00054783          	lbu	a5,0(a0)
    80001b38:	00050713          	mv	a4,a0
    80001b3c:	00078c63          	beqz	a5,80001b54 <strlen+0x20>
    80001b40:	00150513          	addi	a0,a0,1
    80001b44:	00054783          	lbu	a5,0(a0)
    80001b48:	fe079ce3          	bnez	a5,80001b40 <strlen+0xc>
    80001b4c:	40e50533          	sub	a0,a0,a4
    80001b50:	00008067          	ret
    80001b54:	00000513          	li	a0,0
    80001b58:	00008067          	ret

0000000080001b5c <strnlen>:
    80001b5c:	00050713          	mv	a4,a0
    80001b60:	02058663          	beqz	a1,80001b8c <strnlen+0x30>
    80001b64:	00054783          	lbu	a5,0(a0)
    80001b68:	02078263          	beqz	a5,80001b8c <strnlen+0x30>
    80001b6c:	00b505b3          	add	a1,a0,a1
    80001b70:	00c0006f          	j	80001b7c <strnlen+0x20>
    80001b74:	00054783          	lbu	a5,0(a0)
    80001b78:	00078663          	beqz	a5,80001b84 <strnlen+0x28>
    80001b7c:	00150513          	addi	a0,a0,1
    80001b80:	feb51ae3          	bne	a0,a1,80001b74 <strnlen+0x18>
    80001b84:	40e50533          	sub	a0,a0,a4
    80001b88:	00008067          	ret
    80001b8c:	00000513          	li	a0,0
    80001b90:	00008067          	ret

0000000080001b94 <strcmp>:
    80001b94:	00150513          	addi	a0,a0,1
    80001b98:	fff54783          	lbu	a5,-1(a0)
    80001b9c:	00158593          	addi	a1,a1,1
    80001ba0:	fff5c703          	lbu	a4,-1(a1)
    80001ba4:	00078a63          	beqz	a5,80001bb8 <strcmp+0x24>
    80001ba8:	fee786e3          	beq	a5,a4,80001b94 <strcmp>
    80001bac:	0007851b          	sext.w	a0,a5
    80001bb0:	40e5053b          	subw	a0,a0,a4
    80001bb4:	00008067          	ret
    80001bb8:	00000513          	li	a0,0
    80001bbc:	ff5ff06f          	j	80001bb0 <strcmp+0x1c>

0000000080001bc0 <strcpy>:
    80001bc0:	00050793          	mv	a5,a0
    80001bc4:	00158593          	addi	a1,a1,1
    80001bc8:	fff5c703          	lbu	a4,-1(a1)
    80001bcc:	00178793          	addi	a5,a5,1
    80001bd0:	fee78fa3          	sb	a4,-1(a5)
    80001bd4:	fe0718e3          	bnez	a4,80001bc4 <strcpy+0x4>
    80001bd8:	00008067          	ret

0000000080001bdc <atol>:
    80001bdc:	00054783          	lbu	a5,0(a0)
    80001be0:	02000713          	li	a4,32
    80001be4:	00e79863          	bne	a5,a4,80001bf4 <atol+0x18>
    80001be8:	00150513          	addi	a0,a0,1
    80001bec:	00054783          	lbu	a5,0(a0)
    80001bf0:	fee78ce3          	beq	a5,a4,80001be8 <atol+0xc>
    80001bf4:	fd57871b          	addiw	a4,a5,-43
    80001bf8:	0fd77713          	andi	a4,a4,253
    80001bfc:	04070263          	beqz	a4,80001c40 <atol+0x64>
    80001c00:	00054683          	lbu	a3,0(a0)
    80001c04:	00050793          	mv	a5,a0
    80001c08:	00000613          	li	a2,0
    80001c0c:	04068863          	beqz	a3,80001c5c <atol+0x80>
    80001c10:	00000513          	li	a0,0
    80001c14:	00178793          	addi	a5,a5,1
    80001c18:	fd06859b          	addiw	a1,a3,-48
    80001c1c:	00251713          	slli	a4,a0,0x2
    80001c20:	0007c683          	lbu	a3,0(a5)
    80001c24:	00a70533          	add	a0,a4,a0
    80001c28:	00151513          	slli	a0,a0,0x1
    80001c2c:	00a58533          	add	a0,a1,a0
    80001c30:	fe0692e3          	bnez	a3,80001c14 <atol+0x38>
    80001c34:	00060463          	beqz	a2,80001c3c <atol+0x60>
    80001c38:	40a00533          	neg	a0,a0
    80001c3c:	00008067          	ret
    80001c40:	00154683          	lbu	a3,1(a0)
    80001c44:	fd378793          	addi	a5,a5,-45
    80001c48:	0017b613          	seqz	a2,a5
    80001c4c:	00150793          	addi	a5,a0,1
    80001c50:	fc0690e3          	bnez	a3,80001c10 <atol+0x34>
    80001c54:	00000513          	li	a0,0
    80001c58:	fddff06f          	j	80001c34 <atol+0x58>
    80001c5c:	00000513          	li	a0,0
    80001c60:	00008067          	ret

Disassembly of section .text.startup:

0000000080001c64 <main>:
    80001c64:	f9010113          	addi	sp,sp,-112
    80001c68:	00001697          	auipc	a3,0x1
    80001c6c:	01068693          	addi	a3,a3,16 # 80002c78 <results_data.3086>
    80001c70:	00000617          	auipc	a2,0x0
    80001c74:	6d860613          	addi	a2,a2,1752 # 80002348 <input_b>
    80001c78:	00001597          	auipc	a1,0x1
    80001c7c:	9e058593          	addi	a1,a1,-1568 # 80002658 <input_a>
    80001c80:	00e00513          	li	a0,14
    80001c84:	06813023          	sd	s0,96(sp)
    80001c88:	04913c23          	sd	s1,88(sp)
    80001c8c:	05213823          	sd	s2,80(sp)
    80001c90:	05313423          	sd	s3,72(sp)
    80001c94:	05413023          	sd	s4,64(sp)
    80001c98:	03513c23          	sd	s5,56(sp)
    80001c9c:	03613823          	sd	s6,48(sp)
    80001ca0:	03813023          	sd	s8,32(sp)
    80001ca4:	01913c23          	sd	s9,24(sp)
    80001ca8:	01a13823          	sd	s10,16(sp)
    80001cac:	01b13423          	sd	s11,8(sp)
    80001cb0:	06113423          	sd	ra,104(sp)
    80001cb4:	03713423          	sd	s7,40(sp)
    80001cb8:	b90ff0ef          	jal	ra,80001048 <matrix_multiply>
    80001cbc:	00400793          	li	a5,4
    80001cc0:	00200413          	li	s0,2
    80001cc4:	00000d97          	auipc	s11,0x0
    80001cc8:	1c0d8d93          	addi	s11,s11,448 # 80001e84 <input_cond+0x4>
    80001ccc:	00000497          	auipc	s1,0x0
    80001cd0:	4c448493          	addi	s1,s1,1220 # 80002190 <input_cond+0x310>
    80001cd4:	00001c17          	auipc	s8,0x1
    80001cd8:	fa4c0c13          	addi	s8,s8,-92 # 80002c78 <results_data.3086>
    80001cdc:	e2018c93          	addi	s9,gp,-480 # 80003298 <counters>
    80001ce0:	00500913          	li	s2,5
    80001ce4:	00700a13          	li	s4,7
    80001ce8:	00a00b13          	li	s6,10
    80001cec:	b4818d13          	addi	s10,gp,-1208 # 80002fc0 <results_temp.3087+0x38>
    80001cf0:	b1018993          	addi	s3,gp,-1264 # 80002f88 <results_temp.3087>
    80001cf4:	00000a97          	auipc	s5,0x0
    80001cf8:	654a8a93          	addi	s5,s5,1620 # 80002348 <input_b>
    80001cfc:	04f47e63          	bleu	a5,s0,80001d58 <main+0xf4>
    80001d00:	06f97c63          	bleu	a5,s2,80001d78 <main+0x114>
    80001d04:	0afa7a63          	bleu	a5,s4,80001db8 <main+0x154>
    80001d08:	0cfb7663          	bleu	a5,s6,80001dd4 <main+0x170>
    80001d0c:	00001b97          	auipc	s7,0x1
    80001d10:	f6cb8b93          	addi	s7,s7,-148 # 80002c78 <results_data.3086>
    80001d14:	b1018793          	addi	a5,gp,-1264 # 80002f88 <results_temp.3087>
    80001d18:	000b8c13          	mv	s8,s7
    80001d1c:	000b8713          	mv	a4,s7
    80001d20:	0007a683          	lw	a3,0(a5)
    80001d24:	00470713          	addi	a4,a4,4
    80001d28:	00478793          	addi	a5,a5,4
    80001d2c:	fed72e23          	sw	a3,-4(a4)
    80001d30:	fefc98e3          	bne	s9,a5,80001d20 <main+0xbc>
    80001d34:	00001617          	auipc	a2,0x1
    80001d38:	f4460613          	addi	a2,a2,-188 # 80002c78 <results_data.3086>
    80001d3c:	00e00593          	li	a1,14
    80001d40:	0c400513          	li	a0,196
    80001d44:	bd8ff0ef          	jal	ra,8000111c <matrix_print>
    80001d48:	0c9d8a63          	beq	s11,s1,80001e1c <main+0x1b8>
    80001d4c:	000da783          	lw	a5,0(s11)
    80001d50:	004d8d93          	addi	s11,s11,4
    80001d54:	faf466e3          	bltu	s0,a5,80001d00 <main+0x9c>
    80001d58:	00098693          	mv	a3,s3
    80001d5c:	00001617          	auipc	a2,0x1
    80001d60:	8fc60613          	addi	a2,a2,-1796 # 80002658 <input_a>
    80001d64:	00001597          	auipc	a1,0x1
    80001d68:	f1458593          	addi	a1,a1,-236 # 80002c78 <results_data.3086>
    80001d6c:	00e00513          	li	a0,14
    80001d70:	ad8ff0ef          	jal	ra,80001048 <matrix_multiply>
    80001d74:	f99ff06f          	j	80001d0c <main+0xa8>
    80001d78:	b1018513          	addi	a0,gp,-1264 # 80002f88 <results_temp.3087>
    80001d7c:	418a8c33          	sub	s8,s5,s8
    80001d80:	cf050793          	addi	a5,a0,-784
    80001d84:	00ac0633          	add	a2,s8,a0
    80001d88:	00050693          	mv	a3,a0
    80001d8c:	0007a703          	lw	a4,0(a5)
    80001d90:	00062583          	lw	a1,0(a2)
    80001d94:	03878793          	addi	a5,a5,56
    80001d98:	03860613          	addi	a2,a2,56
    80001d9c:	00b7073b          	addw	a4,a4,a1
    80001da0:	00e6a023          	sw	a4,0(a3)
    80001da4:	03868693          	addi	a3,a3,56
    80001da8:	fea792e3          	bne	a5,a0,80001d8c <main+0x128>
    80001dac:	00450513          	addi	a0,a0,4
    80001db0:	fcad18e3          	bne	s10,a0,80001d80 <main+0x11c>
    80001db4:	f59ff06f          	j	80001d0c <main+0xa8>
    80001db8:	00098693          	mv	a3,s3
    80001dbc:	000a8613          	mv	a2,s5
    80001dc0:	00001597          	auipc	a1,0x1
    80001dc4:	eb858593          	addi	a1,a1,-328 # 80002c78 <results_data.3086>
    80001dc8:	00e00513          	li	a0,14
    80001dcc:	a7cff0ef          	jal	ra,80001048 <matrix_multiply>
    80001dd0:	f3dff06f          	j	80001d0c <main+0xa8>
    80001dd4:	00000797          	auipc	a5,0x0
    80001dd8:	26478793          	addi	a5,a5,612 # 80002038 <input_cond+0x1b8>
    80001ddc:	b1018513          	addi	a0,gp,-1264 # 80002f88 <results_temp.3087>
    80001de0:	41878c33          	sub	s8,a5,s8
    80001de4:	cf050793          	addi	a5,a0,-784
    80001de8:	00ac0633          	add	a2,s8,a0
    80001dec:	00050693          	mv	a3,a0
    80001df0:	0007a703          	lw	a4,0(a5)
    80001df4:	00062583          	lw	a1,0(a2)
    80001df8:	03878793          	addi	a5,a5,56
    80001dfc:	03860613          	addi	a2,a2,56
    80001e00:	00b7073b          	addw	a4,a4,a1
    80001e04:	00e6a023          	sw	a4,0(a3)
    80001e08:	03868693          	addi	a3,a3,56
    80001e0c:	fea792e3          	bne	a5,a0,80001df0 <main+0x18c>
    80001e10:	00450513          	addi	a0,a0,4
    80001e14:	fda518e3          	bne	a0,s10,80001de4 <main+0x180>
    80001e18:	ef5ff06f          	j	80001d0c <main+0xa8>
    80001e1c:	00001797          	auipc	a5,0x1
    80001e20:	b4c78793          	addi	a5,a5,-1204 # 80002968 <input_verify>
    80001e24:	00001717          	auipc	a4,0x1
    80001e28:	e5470713          	addi	a4,a4,-428 # 80002c78 <results_data.3086>
    80001e2c:	0100006f          	j	80001e3c <main+0x1d8>
    80001e30:	00478793          	addi	a5,a5,4
    80001e34:	004b8b93          	addi	s7,s7,4
    80001e38:	00f70c63          	beq	a4,a5,80001e50 <main+0x1ec>
    80001e3c:	0007a603          	lw	a2,0(a5)
    80001e40:	000ba683          	lw	a3,0(s7)
    80001e44:	fed606e3          	beq	a2,a3,80001e30 <main+0x1cc>
    80001e48:	00100513          	li	a0,1
    80001e4c:	985ff0ef          	jal	ra,800017d0 <exit>
    80001e50:	00000513          	li	a0,0
    80001e54:	ff9ff06f          	j	80001e4c <main+0x1e8>
    80001e58:	ff010113          	addi	sp,sp,-16
    80001e5c:	00000517          	auipc	a0,0x0
    80001e60:	4c450513          	addi	a0,a0,1220 # 80002320 <input_cond+0x4a0>
    80001e64:	00113423          	sd	ra,8(sp)
    80001e68:	985ff0ef          	jal	ra,800017ec <printstr>
    80001e6c:	00813083          	ld	ra,8(sp)
    80001e70:	fff00513          	li	a0,-1
    80001e74:	01010113          	addi	sp,sp,16
    80001e78:	00008067          	ret

Disassembly of section .data:

0000000080002348 <input_b>:
    80002348:	00000003          	lb	zero,0(zero) # 0 <_tdata_begin>
    8000234c:	0001                	nop
    8000234e:	0000                	unimp
    80002350:	0002                	0x2
    80002352:	0000                	unimp
    80002354:	0008                	0x8
    80002356:	0000                	unimp
    80002358:	000a                	0xa
    8000235a:	0000                	unimp
    8000235c:	00000007          	0x7
    80002360:	0002                	0x2
    80002362:	0000                	unimp
    80002364:	0001                	nop
    80002366:	0000                	unimp
    80002368:	0006                	0x6
    8000236a:	0000                	unimp
    8000236c:	000a                	0xa
    8000236e:	0000                	unimp
    80002370:	0004                	0x4
    80002372:	0000                	unimp
    80002374:	0004                	0x4
    80002376:	0000                	unimp
    80002378:	0008                	0x8
    8000237a:	0000                	unimp
    8000237c:	000a                	0xa
    8000237e:	0000                	unimp
    80002380:	0002                	0x2
    80002382:	0000                	unimp
    80002384:	0002                	0x2
    80002386:	0000                	unimp
    80002388:	0000                	unimp
    8000238a:	0000                	unimp
    8000238c:	0001                	nop
    8000238e:	0000                	unimp
    80002390:	0005                	c.addi	zero,1
    80002392:	0000                	unimp
    80002394:	0006                	0x6
    80002396:	0000                	unimp
    80002398:	0001                	nop
    8000239a:	0000                	unimp
    8000239c:	0002                	0x2
    8000239e:	0000                	unimp
    800023a0:	00000007          	0x7
    800023a4:	00000007          	0x7
    800023a8:	0006                	0x6
    800023aa:	0000                	unimp
    800023ac:	0002                	0x2
    800023ae:	0000                	unimp
    800023b0:	000a                	0xa
    800023b2:	0000                	unimp
    800023b4:	000a                	0xa
    800023b6:	0000                	unimp
    800023b8:	0002                	0x2
    800023ba:	0000                	unimp
    800023bc:	00000007          	0x7
    800023c0:	0005                	c.addi	zero,1
    800023c2:	0000                	unimp
    800023c4:	0009                	c.addi	zero,2
    800023c6:	0000                	unimp
    800023c8:	000a                	0xa
    800023ca:	0000                	unimp
    800023cc:	00000007          	0x7
    800023d0:	0004                	0x4
    800023d2:	0000                	unimp
    800023d4:	0002                	0x2
    800023d6:	0000                	unimp
    800023d8:	0008                	0x8
    800023da:	0000                	unimp
    800023dc:	00000003          	lb	zero,0(zero) # 0 <_tdata_begin>
    800023e0:	0005                	c.addi	zero,1
    800023e2:	0000                	unimp
    800023e4:	0005                	c.addi	zero,1
    800023e6:	0000                	unimp
    800023e8:	0008                	0x8
    800023ea:	0000                	unimp
    800023ec:	0000                	unimp
    800023ee:	0000                	unimp
    800023f0:	0009                	c.addi	zero,2
    800023f2:	0000                	unimp
    800023f4:	00000007          	0x7
    800023f8:	0006                	0x6
    800023fa:	0000                	unimp
    800023fc:	0006                	0x6
    800023fe:	0000                	unimp
    80002400:	0002                	0x2
    80002402:	0000                	unimp
    80002404:	0004                	0x4
    80002406:	0000                	unimp
    80002408:	0004                	0x4
    8000240a:	0000                	unimp
    8000240c:	00000003          	lb	zero,0(zero) # 0 <_tdata_begin>
    80002410:	0008                	0x8
    80002412:	0000                	unimp
    80002414:	0008                	0x8
    80002416:	0000                	unimp
    80002418:	0005                	c.addi	zero,1
    8000241a:	0000                	unimp
    8000241c:	0001                	nop
    8000241e:	0000                	unimp
    80002420:	00000003          	lb	zero,0(zero) # 0 <_tdata_begin>
    80002424:	000a                	0xa
    80002426:	0000                	unimp
    80002428:	0005                	c.addi	zero,1
    8000242a:	0000                	unimp
    8000242c:	0009                	c.addi	zero,2
    8000242e:	0000                	unimp
    80002430:	0001                	nop
    80002432:	0000                	unimp
    80002434:	0004                	0x4
    80002436:	0000                	unimp
    80002438:	0005                	c.addi	zero,1
    8000243a:	0000                	unimp
    8000243c:	0009                	c.addi	zero,2
    8000243e:	0000                	unimp
    80002440:	0008                	0x8
    80002442:	0000                	unimp
    80002444:	000a                	0xa
    80002446:	0000                	unimp
    80002448:	00000007          	0x7
    8000244c:	0005                	c.addi	zero,1
    8000244e:	0000                	unimp
    80002450:	0002                	0x2
    80002452:	0000                	unimp
    80002454:	0006                	0x6
    80002456:	0000                	unimp
    80002458:	0002                	0x2
    8000245a:	0000                	unimp
    8000245c:	0008                	0x8
    8000245e:	0000                	unimp
    80002460:	0008                	0x8
    80002462:	0000                	unimp
    80002464:	0008                	0x8
    80002466:	0000                	unimp
    80002468:	0001                	nop
    8000246a:	0000                	unimp
    8000246c:	0001                	nop
    8000246e:	0000                	unimp
    80002470:	0000                	unimp
    80002472:	0000                	unimp
    80002474:	00000003          	lb	zero,0(zero) # 0 <_tdata_begin>
    80002478:	0004                	0x4
    8000247a:	0000                	unimp
    8000247c:	0005                	c.addi	zero,1
    8000247e:	0000                	unimp
    80002480:	0006                	0x6
    80002482:	0000                	unimp
    80002484:	0009                	c.addi	zero,2
    80002486:	0000                	unimp
    80002488:	0001                	nop
    8000248a:	0000                	unimp
    8000248c:	0002                	0x2
    8000248e:	0000                	unimp
    80002490:	0009                	c.addi	zero,2
    80002492:	0000                	unimp
    80002494:	000a                	0xa
    80002496:	0000                	unimp
    80002498:	0004                	0x4
    8000249a:	0000                	unimp
    8000249c:	0009                	c.addi	zero,2
    8000249e:	0000                	unimp
    800024a0:	0000                	unimp
    800024a2:	0000                	unimp
    800024a4:	0008                	0x8
    800024a6:	0000                	unimp
    800024a8:	0004                	0x4
    800024aa:	0000                	unimp
    800024ac:	0005                	c.addi	zero,1
    800024ae:	0000                	unimp
    800024b0:	00000003          	lb	zero,0(zero) # 0 <_tdata_begin>
    800024b4:	000a                	0xa
    800024b6:	0000                	unimp
    800024b8:	0009                	c.addi	zero,2
    800024ba:	0000                	unimp
    800024bc:	000a                	0xa
    800024be:	0000                	unimp
    800024c0:	0004                	0x4
    800024c2:	0000                	unimp
    800024c4:	0006                	0x6
    800024c6:	0000                	unimp
    800024c8:	0005                	c.addi	zero,1
    800024ca:	0000                	unimp
    800024cc:	0002                	0x2
    800024ce:	0000                	unimp
    800024d0:	00000007          	0x7
    800024d4:	0002                	0x2
    800024d6:	0000                	unimp
    800024d8:	0002                	0x2
    800024da:	0000                	unimp
    800024dc:	0005                	c.addi	zero,1
    800024de:	0000                	unimp
    800024e0:	0002                	0x2
    800024e2:	0000                	unimp
    800024e4:	0009                	c.addi	zero,2
    800024e6:	0000                	unimp
    800024e8:	0002                	0x2
    800024ea:	0000                	unimp
    800024ec:	0001                	nop
    800024ee:	0000                	unimp
    800024f0:	0005                	c.addi	zero,1
    800024f2:	0000                	unimp
    800024f4:	0002                	0x2
    800024f6:	0000                	unimp
    800024f8:	0005                	c.addi	zero,1
    800024fa:	0000                	unimp
    800024fc:	000a                	0xa
    800024fe:	0000                	unimp
    80002500:	0001                	nop
    80002502:	0000                	unimp
    80002504:	0004                	0x4
    80002506:	0000                	unimp
    80002508:	0009                	c.addi	zero,2
    8000250a:	0000                	unimp
    8000250c:	0001                	nop
    8000250e:	0000                	unimp
    80002510:	00000003          	lb	zero,0(zero) # 0 <_tdata_begin>
    80002514:	00000007          	0x7
    80002518:	000a                	0xa
    8000251a:	0000                	unimp
    8000251c:	0005                	c.addi	zero,1
    8000251e:	0000                	unimp
    80002520:	0008                	0x8
    80002522:	0000                	unimp
    80002524:	0002                	0x2
    80002526:	0000                	unimp
    80002528:	0001                	nop
    8000252a:	0000                	unimp
    8000252c:	00000003          	lb	zero,0(zero) # 0 <_tdata_begin>
    80002530:	0002                	0x2
    80002532:	0000                	unimp
    80002534:	00000007          	0x7
    80002538:	0002                	0x2
    8000253a:	0000                	unimp
    8000253c:	0009                	c.addi	zero,2
    8000253e:	0000                	unimp
    80002540:	0001                	nop
    80002542:	0000                	unimp
    80002544:	0000                	unimp
    80002546:	0000                	unimp
    80002548:	0005                	c.addi	zero,1
    8000254a:	0000                	unimp
    8000254c:	000a                	0xa
    8000254e:	0000                	unimp
    80002550:	0004                	0x4
    80002552:	0000                	unimp
    80002554:	0009                	c.addi	zero,2
    80002556:	0000                	unimp
    80002558:	0001                	nop
    8000255a:	0000                	unimp
    8000255c:	000a                	0xa
    8000255e:	0000                	unimp
    80002560:	00000003          	lb	zero,0(zero) # 0 <_tdata_begin>
    80002564:	0006                	0x6
    80002566:	0000                	unimp
    80002568:	0008                	0x8
    8000256a:	0000                	unimp
    8000256c:	0006                	0x6
    8000256e:	0000                	unimp
    80002570:	0009                	c.addi	zero,2
    80002572:	0000                	unimp
    80002574:	00000007          	0x7
    80002578:	0008                	0x8
    8000257a:	0000                	unimp
    8000257c:	0009                	c.addi	zero,2
    8000257e:	0000                	unimp
    80002580:	0009                	c.addi	zero,2
    80002582:	0000                	unimp
    80002584:	0004                	0x4
    80002586:	0000                	unimp
    80002588:	0000                	unimp
    8000258a:	0000                	unimp
    8000258c:	0004                	0x4
    8000258e:	0000                	unimp
    80002590:	0009                	c.addi	zero,2
    80002592:	0000                	unimp
    80002594:	0000                	unimp
    80002596:	0000                	unimp
    80002598:	0009                	c.addi	zero,2
    8000259a:	0000                	unimp
    8000259c:	00000003          	lb	zero,0(zero) # 0 <_tdata_begin>
    800025a0:	0008                	0x8
    800025a2:	0000                	unimp
    800025a4:	0008                	0x8
    800025a6:	0000                	unimp
    800025a8:	0004                	0x4
    800025aa:	0000                	unimp
    800025ac:	0004                	0x4
    800025ae:	0000                	unimp
    800025b0:	00000007          	0x7
    800025b4:	0009                	c.addi	zero,2
    800025b6:	0000                	unimp
    800025b8:	0005                	c.addi	zero,1
    800025ba:	0000                	unimp
    800025bc:	0009                	c.addi	zero,2
    800025be:	0000                	unimp
    800025c0:	0006                	0x6
    800025c2:	0000                	unimp
    800025c4:	0004                	0x4
    800025c6:	0000                	unimp
    800025c8:	0008                	0x8
    800025ca:	0000                	unimp
    800025cc:	0008                	0x8
    800025ce:	0000                	unimp
    800025d0:	0001                	nop
    800025d2:	0000                	unimp
    800025d4:	0006                	0x6
    800025d6:	0000                	unimp
    800025d8:	0000                	unimp
    800025da:	0000                	unimp
    800025dc:	00000003          	lb	zero,0(zero) # 0 <_tdata_begin>
    800025e0:	0005                	c.addi	zero,1
    800025e2:	0000                	unimp
    800025e4:	00000007          	0x7
    800025e8:	0004                	0x4
    800025ea:	0000                	unimp
    800025ec:	00000003          	lb	zero,0(zero) # 0 <_tdata_begin>
    800025f0:	00000007          	0x7
    800025f4:	0009                	c.addi	zero,2
    800025f6:	0000                	unimp
    800025f8:	0008                	0x8
    800025fa:	0000                	unimp
    800025fc:	0009                	c.addi	zero,2
    800025fe:	0000                	unimp
    80002600:	0004                	0x4
    80002602:	0000                	unimp
    80002604:	00000007          	0x7
    80002608:	0002                	0x2
    8000260a:	0000                	unimp
    8000260c:	0002                	0x2
    8000260e:	0000                	unimp
    80002610:	0006                	0x6
    80002612:	0000                	unimp
    80002614:	0005                	c.addi	zero,1
    80002616:	0000                	unimp
    80002618:	0001                	nop
    8000261a:	0000                	unimp
    8000261c:	0008                	0x8
    8000261e:	0000                	unimp
    80002620:	0009                	c.addi	zero,2
    80002622:	0000                	unimp
    80002624:	00000003          	lb	zero,0(zero) # 0 <_tdata_begin>
    80002628:	00000007          	0x7
    8000262c:	0004                	0x4
    8000262e:	0000                	unimp
    80002630:	0000                	unimp
    80002632:	0000                	unimp
    80002634:	00000003          	lb	zero,0(zero) # 0 <_tdata_begin>
    80002638:	000a                	0xa
    8000263a:	0000                	unimp
    8000263c:	0006                	0x6
    8000263e:	0000                	unimp
    80002640:	0004                	0x4
    80002642:	0000                	unimp
    80002644:	0005                	c.addi	zero,1
    80002646:	0000                	unimp
    80002648:	0009                	c.addi	zero,2
    8000264a:	0000                	unimp
    8000264c:	0009                	c.addi	zero,2
    8000264e:	0000                	unimp
    80002650:	0004                	0x4
    80002652:	0000                	unimp
    80002654:	0006                	0x6
    80002656:	0000                	unimp

0000000080002658 <input_a>:
    80002658:	00000007          	0x7
    8000265c:	0002                	0x2
    8000265e:	0000                	unimp
    80002660:	0001                	nop
    80002662:	0000                	unimp
    80002664:	0001                	nop
    80002666:	0000                	unimp
    80002668:	0008                	0x8
    8000266a:	0000                	unimp
    8000266c:	0002                	0x2
    8000266e:	0000                	unimp
    80002670:	0005                	c.addi	zero,1
    80002672:	0000                	unimp
    80002674:	0001                	nop
    80002676:	0000                	unimp
    80002678:	0002                	0x2
    8000267a:	0000                	unimp
    8000267c:	0004                	0x4
    8000267e:	0000                	unimp
    80002680:	0001                	nop
    80002682:	0000                	unimp
    80002684:	0004                	0x4
    80002686:	0000                	unimp
    80002688:	0009                	c.addi	zero,2
    8000268a:	0000                	unimp
    8000268c:	000a                	0xa
    8000268e:	0000                	unimp
    80002690:	0008                	0x8
    80002692:	0000                	unimp
    80002694:	0000                	unimp
    80002696:	0000                	unimp
    80002698:	0002                	0x2
    8000269a:	0000                	unimp
    8000269c:	0005                	c.addi	zero,1
    8000269e:	0000                	unimp
    800026a0:	0004                	0x4
    800026a2:	0000                	unimp
    800026a4:	0000                	unimp
    800026a6:	0000                	unimp
    800026a8:	00000007          	0x7
    800026ac:	0008                	0x8
    800026ae:	0000                	unimp
    800026b0:	0002                	0x2
    800026b2:	0000                	unimp
    800026b4:	0005                	c.addi	zero,1
    800026b6:	0000                	unimp
    800026b8:	0005                	c.addi	zero,1
    800026ba:	0000                	unimp
    800026bc:	0001                	nop
    800026be:	0000                	unimp
    800026c0:	0008                	0x8
    800026c2:	0000                	unimp
    800026c4:	0000                	unimp
    800026c6:	0000                	unimp
    800026c8:	0000                	unimp
    800026ca:	0000                	unimp
    800026cc:	00000007          	0x7
    800026d0:	0009                	c.addi	zero,2
    800026d2:	0000                	unimp
    800026d4:	0004                	0x4
    800026d6:	0000                	unimp
    800026d8:	00000003          	lb	zero,0(zero) # 0 <_tdata_begin>
    800026dc:	000a                	0xa
    800026de:	0000                	unimp
    800026e0:	0006                	0x6
    800026e2:	0000                	unimp
    800026e4:	0000                	unimp
    800026e6:	0000                	unimp
    800026e8:	0002                	0x2
    800026ea:	0000                	unimp
    800026ec:	0005                	c.addi	zero,1
    800026ee:	0000                	unimp
    800026f0:	000a                	0xa
    800026f2:	0000                	unimp
    800026f4:	0008                	0x8
    800026f6:	0000                	unimp
    800026f8:	0000                	unimp
    800026fa:	0000                	unimp
    800026fc:	0006                	0x6
    800026fe:	0000                	unimp
    80002700:	00000003          	lb	zero,0(zero) # 0 <_tdata_begin>
    80002704:	0009                	c.addi	zero,2
    80002706:	0000                	unimp
    80002708:	0008                	0x8
    8000270a:	0000                	unimp
    8000270c:	0009                	c.addi	zero,2
    8000270e:	0000                	unimp
    80002710:	0005                	c.addi	zero,1
    80002712:	0000                	unimp
    80002714:	0002                	0x2
    80002716:	0000                	unimp
    80002718:	0006                	0x6
    8000271a:	0000                	unimp
    8000271c:	0009                	c.addi	zero,2
    8000271e:	0000                	unimp
    80002720:	00000003          	lb	zero,0(zero) # 0 <_tdata_begin>
    80002724:	0005                	c.addi	zero,1
    80002726:	0000                	unimp
    80002728:	0006                	0x6
    8000272a:	0000                	unimp
    8000272c:	0006                	0x6
    8000272e:	0000                	unimp
    80002730:	0002                	0x2
    80002732:	0000                	unimp
    80002734:	0002                	0x2
    80002736:	0000                	unimp
    80002738:	0008                	0x8
    8000273a:	0000                	unimp
    8000273c:	00000007          	0x7
    80002740:	0001                	nop
    80002742:	0000                	unimp
    80002744:	0000                	unimp
    80002746:	0000                	unimp
    80002748:	0006                	0x6
    8000274a:	0000                	unimp
    8000274c:	00000003          	lb	zero,0(zero) # 0 <_tdata_begin>
    80002750:	00000007          	0x7
    80002754:	0000                	unimp
    80002756:	0000                	unimp
    80002758:	000a                	0xa
    8000275a:	0000                	unimp
    8000275c:	0008                	0x8
    8000275e:	0000                	unimp
    80002760:	00000007          	0x7
    80002764:	0001                	nop
    80002766:	0000                	unimp
    80002768:	0008                	0x8
    8000276a:	0000                	unimp
    8000276c:	0001                	nop
    8000276e:	0000                	unimp
    80002770:	0000                	unimp
    80002772:	0000                	unimp
    80002774:	0000                	unimp
    80002776:	0000                	unimp
    80002778:	00000003          	lb	zero,0(zero) # 0 <_tdata_begin>
    8000277c:	0001                	nop
    8000277e:	0000                	unimp
    80002780:	00000003          	lb	zero,0(zero) # 0 <_tdata_begin>
    80002784:	0004                	0x4
    80002786:	0000                	unimp
    80002788:	000a                	0xa
    8000278a:	0000                	unimp
    8000278c:	0005                	c.addi	zero,1
    8000278e:	0000                	unimp
    80002790:	0001                	nop
    80002792:	0000                	unimp
    80002794:	00000007          	0x7
    80002798:	0005                	c.addi	zero,1
    8000279a:	0000                	unimp
    8000279c:	00000007          	0x7
    800027a0:	0000                	unimp
    800027a2:	0000                	unimp
    800027a4:	0002                	0x2
    800027a6:	0000                	unimp
    800027a8:	0004                	0x4
    800027aa:	0000                	unimp
    800027ac:	0002                	0x2
    800027ae:	0000                	unimp
    800027b0:	0009                	c.addi	zero,2
    800027b2:	0000                	unimp
    800027b4:	0000                	unimp
    800027b6:	0000                	unimp
    800027b8:	0001                	nop
    800027ba:	0000                	unimp
    800027bc:	0005                	c.addi	zero,1
    800027be:	0000                	unimp
    800027c0:	0004                	0x4
    800027c2:	0000                	unimp
    800027c4:	000a                	0xa
    800027c6:	0000                	unimp
    800027c8:	0009                	c.addi	zero,2
    800027ca:	0000                	unimp
    800027cc:	0005                	c.addi	zero,1
    800027ce:	0000                	unimp
    800027d0:	0004                	0x4
    800027d2:	0000                	unimp
    800027d4:	00000003          	lb	zero,0(zero) # 0 <_tdata_begin>
    800027d8:	000a                	0xa
    800027da:	0000                	unimp
    800027dc:	0008                	0x8
    800027de:	0000                	unimp
    800027e0:	0006                	0x6
    800027e2:	0000                	unimp
    800027e4:	0002                	0x2
    800027e6:	0000                	unimp
    800027e8:	0005                	c.addi	zero,1
    800027ea:	0000                	unimp
    800027ec:	0000                	unimp
    800027ee:	0000                	unimp
    800027f0:	0001                	nop
    800027f2:	0000                	unimp
    800027f4:	0006                	0x6
    800027f6:	0000                	unimp
    800027f8:	0004                	0x4
    800027fa:	0000                	unimp
    800027fc:	0005                	c.addi	zero,1
    800027fe:	0000                	unimp
    80002800:	0000                	unimp
    80002802:	0000                	unimp
    80002804:	0008                	0x8
    80002806:	0000                	unimp
    80002808:	0006                	0x6
    8000280a:	0000                	unimp
    8000280c:	0002                	0x2
    8000280e:	0000                	unimp
    80002810:	0006                	0x6
    80002812:	0000                	unimp
    80002814:	0005                	c.addi	zero,1
    80002816:	0000                	unimp
    80002818:	00000003          	lb	zero,0(zero) # 0 <_tdata_begin>
    8000281c:	0001                	nop
    8000281e:	0000                	unimp
    80002820:	00000007          	0x7
    80002824:	0008                	0x8
    80002826:	0000                	unimp
    80002828:	0000                	unimp
    8000282a:	0000                	unimp
    8000282c:	0006                	0x6
    8000282e:	0000                	unimp
    80002830:	00000003          	lb	zero,0(zero) # 0 <_tdata_begin>
    80002834:	0009                	c.addi	zero,2
    80002836:	0000                	unimp
    80002838:	0000                	unimp
    8000283a:	0000                	unimp
    8000283c:	0009                	c.addi	zero,2
    8000283e:	0000                	unimp
    80002840:	0005                	c.addi	zero,1
    80002842:	0000                	unimp
    80002844:	0002                	0x2
    80002846:	0000                	unimp
    80002848:	00000003          	lb	zero,0(zero) # 0 <_tdata_begin>
    8000284c:	00000003          	lb	zero,0(zero) # 0 <_tdata_begin>
    80002850:	000a                	0xa
    80002852:	0000                	unimp
    80002854:	0009                	c.addi	zero,2
    80002856:	0000                	unimp
    80002858:	000a                	0xa
    8000285a:	0000                	unimp
    8000285c:	0002                	0x2
    8000285e:	0000                	unimp
    80002860:	0001                	nop
    80002862:	0000                	unimp
    80002864:	00000007          	0x7
    80002868:	0009                	c.addi	zero,2
    8000286a:	0000                	unimp
    8000286c:	0004                	0x4
    8000286e:	0000                	unimp
    80002870:	0006                	0x6
    80002872:	0000                	unimp
    80002874:	0009                	c.addi	zero,2
    80002876:	0000                	unimp
    80002878:	0005                	c.addi	zero,1
    8000287a:	0000                	unimp
    8000287c:	0001                	nop
    8000287e:	0000                	unimp
    80002880:	0005                	c.addi	zero,1
    80002882:	0000                	unimp
    80002884:	0008                	0x8
    80002886:	0000                	unimp
    80002888:	0004                	0x4
    8000288a:	0000                	unimp
    8000288c:	0009                	c.addi	zero,2
    8000288e:	0000                	unimp
    80002890:	0008                	0x8
    80002892:	0000                	unimp
    80002894:	00000003          	lb	zero,0(zero) # 0 <_tdata_begin>
    80002898:	0006                	0x6
    8000289a:	0000                	unimp
    8000289c:	0000                	unimp
    8000289e:	0000                	unimp
    800028a0:	0001                	nop
    800028a2:	0000                	unimp
    800028a4:	00000007          	0x7
    800028a8:	0002                	0x2
    800028aa:	0000                	unimp
    800028ac:	0000                	unimp
    800028ae:	0000                	unimp
    800028b0:	00000007          	0x7
    800028b4:	0005                	c.addi	zero,1
    800028b6:	0000                	unimp
    800028b8:	000a                	0xa
    800028ba:	0000                	unimp
    800028bc:	0006                	0x6
    800028be:	0000                	unimp
    800028c0:	0000                	unimp
    800028c2:	0000                	unimp
    800028c4:	0001                	nop
    800028c6:	0000                	unimp
    800028c8:	000a                	0xa
    800028ca:	0000                	unimp
    800028cc:	0002                	0x2
    800028ce:	0000                	unimp
    800028d0:	0000                	unimp
    800028d2:	0000                	unimp
    800028d4:	00000003          	lb	zero,0(zero) # 0 <_tdata_begin>
    800028d8:	0002                	0x2
    800028da:	0000                	unimp
    800028dc:	0006                	0x6
    800028de:	0000                	unimp
    800028e0:	0006                	0x6
    800028e2:	0000                	unimp
    800028e4:	0002                	0x2
    800028e6:	0000                	unimp
    800028e8:	0000                	unimp
    800028ea:	0000                	unimp
    800028ec:	0008                	0x8
    800028ee:	0000                	unimp
    800028f0:	00000007          	0x7
    800028f4:	0006                	0x6
    800028f6:	0000                	unimp
    800028f8:	0008                	0x8
    800028fa:	0000                	unimp
    800028fc:	0006                	0x6
    800028fe:	0000                	unimp
    80002900:	000a                	0xa
    80002902:	0000                	unimp
    80002904:	0008                	0x8
    80002906:	0000                	unimp
    80002908:	000a                	0xa
    8000290a:	0000                	unimp
    8000290c:	0000                	unimp
    8000290e:	0000                	unimp
    80002910:	0006                	0x6
    80002912:	0000                	unimp
    80002914:	0009                	c.addi	zero,2
    80002916:	0000                	unimp
    80002918:	000a                	0xa
    8000291a:	0000                	unimp
    8000291c:	0006                	0x6
    8000291e:	0000                	unimp
    80002920:	00000003          	lb	zero,0(zero) # 0 <_tdata_begin>
    80002924:	000a                	0xa
    80002926:	0000                	unimp
    80002928:	000a                	0xa
    8000292a:	0000                	unimp
    8000292c:	0002                	0x2
    8000292e:	0000                	unimp
    80002930:	000a                	0xa
    80002932:	0000                	unimp
    80002934:	0002                	0x2
    80002936:	0000                	unimp
    80002938:	0004                	0x4
    8000293a:	0000                	unimp
    8000293c:	0009                	c.addi	zero,2
    8000293e:	0000                	unimp
    80002940:	000a                	0xa
    80002942:	0000                	unimp
    80002944:	0005                	c.addi	zero,1
    80002946:	0000                	unimp
    80002948:	0000                	unimp
    8000294a:	0000                	unimp
    8000294c:	00000007          	0x7
    80002950:	0008                	0x8
    80002952:	0000                	unimp
    80002954:	0000                	unimp
    80002956:	0000                	unimp
    80002958:	0006                	0x6
    8000295a:	0000                	unimp
    8000295c:	0004                	0x4
    8000295e:	0000                	unimp
    80002960:	0002                	0x2
    80002962:	0000                	unimp
    80002964:	0000                	unimp
    80002966:	0000                	unimp

0000000080002968 <input_verify>:
    80002968:	79f8                	ld	a4,240(a1)
    8000296a:	b9c5                	j	8000265a <input_a+0x2>
    8000296c:	b6e9                	j	80002536 <input_b+0x1ee>
    8000296e:	9b6bedaf          	0x9b6bedaf
    80002972:	9f86                	add	t6,t6,ra
    80002974:	e4e9                	bnez	s1,80002a3e <input_verify+0xd6>
    80002976:	0555                	addi	a0,a0,21
    80002978:	c7d4                	sw	a3,12(a5)
    8000297a:	8b12                	mv	s6,tp
    8000297c:	040d                	addi	s0,s0,3
    8000297e:	32e4                	fld	fs1,224(a3)
    80002980:	a4f19277          	0xa4f19277
    80002984:	bb71e6a7          	0xbb71e6a7
    80002988:	276e                	fld	fa4,216(sp)
    8000298a:	8eb2cce3          	blt	t0,a1,80002282 <input_cond+0x402>
    8000298e:	f49d                	bnez	s1,800028bc <input_a+0x264>
    80002990:	01f9b4eb          	0x1f9b4eb
    80002994:	9dca                	add	s11,s11,s2
    80002996:	2465                	addiw	s0,s0,25
    80002998:	5068                	lw	a0,100(s0)
    8000299a:	8aa5                	andi	a3,a3,9
    8000299c:	c3da                	sw	s6,196(sp)
    8000299e:	c845                	beqz	s0,80002a4e <input_verify+0xe6>
    800029a0:	b2493b67          	0xb2493b67
    800029a4:	1f51                	addi	t5,t5,-12
    800029a6:	96ff1aef          	jal	s5,7fff4314 <_tbss_end+0x7fff42d0>
    800029aa:	0c31                	addi	s8,s8,12
    800029ac:	6cfe                	ld	s9,472(sp)
    800029ae:	9818                	0x9818
    800029b0:	2e7efc77          	0x2e7efc77
    800029b4:	2e1d                	addiw	t3,t3,7
    800029b6:	768c                	ld	a1,40(a3)
    800029b8:	05ae                	slli	a1,a1,0xb
    800029ba:	7cb16fbf 7fea7b56 	0x7fea7b567cb16fbf
    800029c2:	f7ac                	sd	a1,104(a5)
    800029c4:	974d                	srai	a4,a4,0x33
    800029c6:	5b60                	lw	s0,116(a4)
    800029c8:	2084500b          	0x2084500b
    800029cc:	8838                	0x8838
    800029ce:	dc2a                	sw	a0,56(sp)
    800029d0:	61a4e14f          	fnmadd.s	ft2,fs1,fs10,fa2,unknown
    800029d4:	e575                	bnez	a0,80002ac0 <input_verify+0x158>
    800029d6:	a2c6                	fsd	fa7,320(sp)
    800029d8:	6da6                	ld	s11,72(sp)
    800029da:	c2e1                	beqz	a3,80002a9a <input_verify+0x132>
    800029dc:	34fe                	fld	fs1,504(sp)
    800029de:	a8d0                	fsd	fa2,144(s1)
    800029e0:	a860                	fsd	fs0,208(s0)
    800029e2:	390c                	fld	fa1,48(a0)
    800029e4:	a81f 0cb8 4dc8      	0x4dc80cb8a81f
    800029ea:	76f2                	ld	a3,312(sp)
    800029ec:	6c94                	ld	a3,24(s1)
    800029ee:	0520                	addi	s0,sp,648
    800029f0:	2119                	addiw	sp,sp,6
    800029f2:	5316b8ab          	0x5316b8ab
    800029f6:	68a6                	ld	a7,72(sp)
    800029f8:	4d61                	li	s10,24
    800029fa:	ae28                	fsd	fa0,88(a2)
    800029fc:	9cf2                	add	s9,s9,t3
    800029fe:	5a801bf3          	csrrw	s7,0x5a8,zero
    80002a02:	ec853a67          	0xec853a67
    80002a06:	cb34                	sw	a3,80(a4)
    80002a08:	9893df6f          	jal	t5,7ff40390 <_tbss_end+0x7ff4034c>
    80002a0c:	5181                	li	gp,-32
    80002a0e:	f0fc0943          	fmadd.s	fs2,fs8,fa5,ft10,rne
    80002a12:	e5d9                	bnez	a1,80002aa0 <input_verify+0x138>
    80002a14:	63c6                	ld	t2,80(sp)
    80002a16:	207f                	0x207f
    80002a18:	511a                	lw	sp,164(sp)
    80002a1a:	efad9457          	0xefad9457
    80002a1e:	1709                	addi	a4,a4,-30
    80002a20:	87f2                	mv	a5,t3
    80002a22:	43e3d22f          	0x43e3d22f
    80002a26:	ec50                	sd	a2,152(s0)
    80002a28:	aa0c                	fsd	fa1,16(a2)
    80002a2a:	5374                	lw	a3,100(a4)
    80002a2c:	e9de                	sd	s7,208(sp)
    80002a2e:	59e8                	lw	a0,116(a1)
    80002a30:	7e84                	ld	s1,56(a3)
    80002a32:	7b7a                	ld	s6,440(sp)
    80002a34:	d7d6                	sw	s5,236(sp)
    80002a36:	0f44                	addi	s1,sp,916
    80002a38:	73fb55ef          	jal	a1,800b8976 <__global_pointer$+0xb54fe>
    80002a3c:	b6f9                	j	8000260a <input_b+0x2c2>
    80002a3e:	dcd0                	sw	a2,60(s1)
    80002a40:	ec90                	sd	a2,24(s1)
    80002a42:	d8a1                	beqz	s1,80002992 <input_verify+0x2a>
    80002a44:	4c78                	lw	a4,92(s0)
    80002a46:	27de                	fld	fa5,464(sp)
    80002a48:	0be5                	addi	s7,s7,25
    80002a4a:	10a87fc3          	fmadd.s	ft11,fa6,fa0,ft2
    80002a4e:	6e56                	ld	t3,336(sp)
    80002a50:	6e471fb7          	lui	t6,0x6e471
    80002a54:	ac1d                	j	80002c8a <results_data.3086+0x12>
    80002a56:	dbfd                	beqz	a5,80002a4c <input_verify+0xe4>
    80002a58:	778a                	ld	a5,160(sp)
    80002a5a:	c16c                	sw	a1,68(a0)
    80002a5c:	5f6c                	lw	a1,124(a4)
    80002a5e:	ec10                	sd	a2,24(s0)
    80002a60:	502e                	0x502e
    80002a62:	f34af243          	fmadd.d	ft4,fs5,fs4,ft10
    80002a66:	7d0539a3          	sd	a6,2003(a0)
    80002a6a:	387276cf          	fnmadd.s	fa3,ft4,ft7,ft7
    80002a6e:	3f01                	addiw	t5,t5,-32
    80002a70:	8fa6                	mv	t6,s1
    80002a72:	e016                	sd	t0,0(sp)
    80002a74:	afd9                	j	8000324a <results_temp.3087+0x2c2>
    80002a76:	5bc0a703          	lw	a4,1468(ra)
    80002a7a:	cc26                	sw	s1,24(sp)
    80002a7c:	95f2                	add	a1,a1,t3
    80002a7e:	cf16                	sw	t0,156(sp)
    80002a80:	93126493          	ori	s1,tp,-1743
    80002a84:	6a71                	lui	s4,0x1c
    80002a86:	790e                	ld	s2,224(sp)
    80002a88:	737c                	ld	a5,224(a4)
    80002a8a:	9caa                	add	s9,s9,a0
    80002a8c:	9ebde217          	auipc	tp,0x9ebde
    80002a90:	9a6958c7          	fmsub.d	fa7,fs2,ft6,fs3,unknown
    80002a94:	1499                	addi	s1,s1,-26
    80002a96:	5305                	li	t1,-31
    80002a98:	449c                	lw	a5,8(s1)
    80002a9a:	0295                	addi	t0,t0,5
    80002a9c:	86bfd087          	0x86bfd087
    80002aa0:	0dcc                	addi	a1,sp,724
    80002aa2:	37f8                	fld	fa4,232(a5)
    80002aa4:	30b6                	fld	ft1,360(sp)
    80002aa6:	03193cbb          	0x3193cbb
    80002aaa:	b1d2                	fsd	fs4,224(sp)
    80002aac:	3f1d22b3          	0x3f1d22b3
    80002ab0:	382b8f17          	auipc	t5,0x382b8
    80002ab4:	cb6061ab          	0xcb6061ab
    80002ab8:	5b09                	li	s6,-30
    80002aba:	9e72                	add	t3,t3,t3
    80002abc:	3b3390db          	0x3b3390db
    80002ac0:	de72                	sw	t3,60(sp)
    80002ac2:	ca4d                	beqz	a2,80002b74 <input_verify+0x20c>
    80002ac4:	efff                	0xefff
    80002ac6:	4be6                	lw	s7,88(sp)
    80002ac8:	6dce                	ld	s11,208(sp)
    80002aca:	901e1bb3          	0x901e1bb3
    80002ace:	f398                	sd	a4,32(a5)
    80002ad0:	ec81                	bnez	s1,80002ae8 <input_verify+0x180>
    80002ad2:	e721                	bnez	a4,80002b1a <input_verify+0x1b2>
    80002ad4:	4028                	lw	a0,64(s0)
    80002ad6:	29d5                	addiw	s3,s3,21
    80002ad8:	803c                	0x803c
    80002ada:	88e9                	andi	s1,s1,26
    80002adc:	784e                	ld	a6,240(sp)
    80002ade:	ecc2b9eb          	0xecc2b9eb
    80002ae2:	b554                	fsd	fa3,168(a0)
    80002ae4:	2e86                	fld	ft9,64(sp)
    80002ae6:	dfa8                	sw	a0,120(a5)
    80002ae8:	df25                	beqz	a4,80002a60 <input_verify+0xf8>
    80002aea:	6e22200f          	0x6e22200f
    80002aee:	fe58                	sd	a4,184(a2)
    80002af0:	51bd                	li	gp,-17
    80002af2:	b51e62a7          	0xb51e62a7
    80002af6:	1b22                	slli	s6,s6,0x28
    80002af8:	d791                	beqz	a5,80002a04 <input_verify+0x9c>
    80002afa:	188d                	addi	a7,a7,-29
    80002afc:	6170                	ld	a2,192(a0)
    80002afe:	30c6                	fld	ft1,112(sp)
    80002b00:	763e                	ld	a2,488(sp)
    80002b02:	642217c7          	0x642217c7
    80002b06:	f590                	sd	a2,40(a1)
    80002b08:	c43e                	sw	a5,8(sp)
    80002b0a:	c0f1                	beqz	s1,80002bce <input_verify+0x266>
    80002b0c:	7a0c                	ld	a1,48(a2)
    80002b0e:	ad86                	fsd	ft1,216(sp)
    80002b10:	907c                	0x907c
    80002b12:	6504                	ld	s1,8(a0)
    80002b14:	3a25                	addiw	s4,s4,-23
    80002b16:	08f4                	addi	a3,sp,92
    80002b18:	2e29                	addiw	t3,t3,10
    80002b1a:	e6f1                	bnez	a3,80002be6 <input_verify+0x27e>
    80002b1c:	4f91                	li	t6,4
    80002b1e:	13e8                	addi	a0,sp,492
    80002b20:	5675                	li	a2,-3
    80002b22:	d2b48b73          	0xd2b48b73
    80002b26:	8259                	srli	a2,a2,0x16
    80002b28:	742c                	ld	a1,104(s0)
    80002b2a:	75a2                	ld	a1,40(sp)
    80002b2c:	1749                	addi	a4,a4,-14
    80002b2e:	6554                	ld	a3,136(a0)
    80002b30:	f01ed007          	0xf01ed007
    80002b34:	9fd98b0b          	0x9fd98b0b
    80002b38:	43964d67          	0x43964d67
    80002b3c:	ebfd                	bnez	a5,80002c32 <input_verify+0x2ca>
    80002b3e:	1fe0                	addi	s0,sp,1020
    80002b40:	1a34                	addi	a3,sp,312
    80002b42:	c1ce                	sw	s3,192(sp)
    80002b44:	87d2                	mv	a5,s4
    80002b46:	d646                	sw	a7,44(sp)
    80002b48:	1cd6                	slli	s9,s9,0x35
    80002b4a:	21d2                	fld	ft3,272(sp)
    80002b4c:	7c49                	lui	s8,0xffff2
    80002b4e:	31f4                	fld	fa3,224(a1)
    80002b50:	0b54                	addi	a3,sp,404
    80002b52:	5df2                	lw	s11,60(sp)
    80002b54:	6a0bd883          	lhu	a7,1696(s7)
    80002b58:	0889fcc3          	fmadd.s	fs9,fs3,fs0,ft1
    80002b5c:	d23d                	beqz	a2,80002ac2 <input_verify+0x15a>
    80002b5e:	2f26                	fld	ft10,72(sp)
    80002b60:	7aeb2cef          	jal	s9,800b530e <__global_pointer$+0xb1e96>
    80002b64:	794a                	ld	s2,176(sp)
    80002b66:	980ecd0f          	0x980ecd0f
    80002b6a:	15dd                	addi	a1,a1,-9
    80002b6c:	c39c                	sw	a5,0(a5)
    80002b6e:	db29                	beqz	a4,80002ac0 <input_verify+0x158>
    80002b70:	e519                	bnez	a0,80002b7e <input_verify+0x216>
    80002b72:	91a5                	srli	a1,a1,0x29
    80002b74:	8104                	0x8104
    80002b76:	66ce                	ld	a3,208(sp)
    80002b78:	c3e2                	sw	s8,196(sp)
    80002b7a:	740e                	ld	s0,224(sp)
    80002b7c:	e100                	sd	s0,0(a0)
    80002b7e:	6840                	ld	s0,144(s0)
    80002b80:	0a7a                	slli	s4,s4,0x1e
    80002b82:	503a                	0x503a
    80002b84:	b355                	j	80002928 <input_a+0x2d0>
    80002b86:	1a48                	addi	a0,sp,308
    80002b88:	a4e6                	fsd	fs9,72(sp)
    80002b8a:	ee38                	sd	a4,88(a2)
    80002b8c:	529c                	lw	a5,32(a3)
    80002b8e:	acc6                	fsd	fa7,88(sp)
    80002b90:	0e529edb          	0xe529edb
    80002b94:	1389                	addi	t2,t2,-30
    80002b96:	fa32                	sd	a2,304(sp)
    80002b98:	96f0                	0x96f0
    80002b9a:	8ccd                	or	s1,s1,a1
    80002b9c:	eec9                	bnez	a3,80002c36 <input_verify+0x2ce>
    80002b9e:	d6dc                	sw	a5,44(a3)
    80002ba0:	63ac5c67          	0x63ac5c67
    80002ba4:	0248                	addi	a0,sp,260
    80002ba6:	27f1                	addiw	a5,a5,28
    80002ba8:	58c9                	li	a7,-14
    80002baa:	a3bc                	fsd	fa5,64(a5)
    80002bac:	f4e4                	sd	s1,232(s1)
    80002bae:	e3abf6b3          	0xe3abf6b3
    80002bb2:	d342                	sw	a6,164(sp)
    80002bb4:	fa1d                	bnez	a2,80002aea <input_verify+0x182>
    80002bb6:	c165                	beqz	a0,80002c96 <results_data.3086+0x1e>
    80002bb8:	a244                	fsd	fs1,128(a2)
    80002bba:	d7e6                	sw	s9,236(sp)
    80002bbc:	00f5                	addi	ra,ra,29
    80002bbe:	fefd                	bnez	a3,80002bbc <input_verify+0x254>
    80002bc0:	fd3bd40f          	0xfd3bd40f
    80002bc4:	fc54                	sd	a3,184(s0)
    80002bc6:	4ece                	lw	t4,208(sp)
    80002bc8:	316b976b          	0x316b976b
    80002bcc:	4a34                	lw	a3,80(a2)
    80002bce:	38d5                	addiw	a7,a7,-11
    80002bd0:	f30a                	sd	sp,416(sp)
    80002bd2:	2cf1                	addiw	s9,s9,28
    80002bd4:	3b44                	fld	fs1,176(a4)
    80002bd6:	0f8892c7          	fmsub.q	ft5,fa7,fs8,ft1,rtz
    80002bda:	2a1627cf          	fnmadd.d	fa5,fa2,ft1,ft5,rdn
    80002bde:	f380                	sd	s0,32(a5)
    80002be0:	75588727          	0x75588727
    80002be4:	b931                	j	80002800 <input_a+0x1a8>
    80002be6:	9a92                	add	s5,s5,tp
    80002be8:	adc2                	fsd	fa6,216(sp)
    80002bea:	f02abb8f          	0xf02abb8f
    80002bee:	57ec                	lw	a1,108(a5)
    80002bf0:	19ad                	addi	s3,s3,-21
    80002bf2:	efc2                	sd	a6,472(sp)
    80002bf4:	2e9f 9b19 a164      	0xa1649b192e9f
    80002bfa:	03e4                	addi	s1,sp,460
    80002bfc:	ef96                	sd	t0,472(sp)
    80002bfe:	2642                	fld	fa2,16(sp)
    80002c00:	124a                	slli	tp,tp,0x32
    80002c02:	a8ca                	fsd	fs2,80(sp)
    80002c04:	e07d                	bnez	s0,80002cea <results_data.3086+0x72>
    80002c06:	e6cd                	bnez	a3,80002cb0 <results_data.3086+0x38>
    80002c08:	3d7e                	fld	fs10,504(sp)
    80002c0a:	58fd                	li	a7,-1
    80002c0c:	9a19                	andi	a2,a2,-26
    80002c0e:	2aa4                	fld	fs1,80(a3)
    80002c10:	6a4e071b          	addiw	a4,t3,1700
    80002c14:	6fd1                	lui	t6,0x14
    80002c16:	5442                	lw	s0,48(sp)
    80002c18:	2c9466c3          	0x2c9466c3
    80002c1c:	e6ae                	sd	a1,328(sp)
    80002c1e:	2c39                	addiw	s8,s8,14
    80002c20:	cfd9                	beqz	a5,80002cbe <results_data.3086+0x46>
    80002c22:	cdf9bd7b          	0xcdf9bd7b
    80002c26:	a716                	fsd	ft5,392(sp)
    80002c28:	f84c                	sd	a1,176(s0)
    80002c2a:	5282                	lw	t0,32(sp)
    80002c2c:	8931                	andi	a0,a0,12
    80002c2e:	ae3e                	fsd	fa5,280(sp)
    80002c30:	23398467          	jalr	s0,563(s3)
    80002c34:	dc1a                	sw	t1,56(sp)
    80002c36:	42529993          	0x42529993
    80002c3a:	e152                	sd	s4,128(sp)
    80002c3c:	15c6                	slli	a1,a1,0x31
    80002c3e:	826e                	mv	tp,s11
    80002c40:	7462                	ld	s0,56(sp)
    80002c42:	30a15ab3          	0x30a15ab3
    80002c46:	3ab1                	addiw	s5,s5,-20
    80002c48:	1be6                	slli	s7,s7,0x39
    80002c4a:	a805a63f 1c09bdf5 	0x1c09bdf5a805a63f
    80002c52:	e9ba                	sd	a4,208(sp)
    80002c54:	73c9                	lui	t2,0xffff2
    80002c56:	d01a                	sw	t1,32(sp)
    80002c58:	33b5                	addiw	t2,t2,-19
    80002c5a:	bcc9                	j	8000272c <input_a+0xd4>
    80002c5c:	7444                	ld	s1,168(s0)
    80002c5e:	1f9d                	addi	t6,t6,-25
    80002c60:	f25a                	sd	s6,288(sp)
    80002c62:	39eb427b          	0x39eb427b
    80002c66:	f1b0                	sd	a2,96(a1)
    80002c68:	0ab9                	addi	s5,s5,14
    80002c6a:	de365b83          	lhu	s7,-541(a2)
    80002c6e:	5a3d                	li	s4,-17
    80002c70:	06f47603          	0x6f47603
    80002c74:	2414                	fld	fa3,8(s0)
    80002c76:	0d1f        	0xd1f
