
pho-mult-add.riscv:     file format elf64-littleriscv


Disassembly of section .text:

0000000080001048 <matrix_multiply>:
    80001048:	08050263          	beqz	a0,800010cc <matrix_multiply+0x84>
    8000104c:	ff010113          	addi	sp,sp,-16
    80001050:	00813423          	sd	s0,8(sp)
    80001054:	0005039b          	sext.w	t2,a0
    80001058:	00251f13          	slli	t5,a0,0x2
    8000105c:	00000413          	li	s0,0
    80001060:	0004029b          	sext.w	t0,s0
    80001064:	00058713          	mv	a4,a1
    80001068:	00000f93          	li	t6,0
    8000106c:	00229e13          	slli	t3,t0,0x2
    80001070:	01c68e33          	add	t3,a3,t3
    80001074:	000e2023          	sw	zero,0(t3)
    80001078:	00ef0eb3          	add	t4,t5,a4
    8000107c:	00060893          	mv	a7,a2
    80001080:	00000793          	li	a5,0
    80001084:	00072803          	lw	a6,0(a4)
    80001088:	0008a303          	lw	t1,0(a7)
    8000108c:	00470713          	addi	a4,a4,4
    80001090:	01e888b3          	add	a7,a7,t5
    80001094:	0268083b          	mulw	a6,a6,t1
    80001098:	00f807bb          	addw	a5,a6,a5
    8000109c:	00fe2023          	sw	a5,0(t3)
    800010a0:	feee92e3          	bne	t4,a4,80001084 <matrix_multiply+0x3c>
    800010a4:	001f8f93          	addi	t6,t6,1
    800010a8:	007282bb          	addw	t0,t0,t2
    800010ac:	000e8713          	mv	a4,t4
    800010b0:	fbf51ee3          	bne	a0,t6,8000106c <matrix_multiply+0x24>
    800010b4:	00140413          	addi	s0,s0,1
    800010b8:	00460613          	addi	a2,a2,4
    800010bc:	faa412e3          	bne	s0,a0,80001060 <matrix_multiply+0x18>
    800010c0:	00813403          	ld	s0,8(sp)
    800010c4:	01010113          	addi	sp,sp,16
    800010c8:	00008067          	ret
    800010cc:	00008067          	ret

00000000800010d0 <matrix_add>:
    800010d0:	04050463          	beqz	a0,80001118 <matrix_add+0x48>
    800010d4:	00050e1b          	sext.w	t3,a0
    800010d8:	00000e93          	li	t4,0
    800010dc:	000e889b          	sext.w	a7,t4
    800010e0:	00000813          	li	a6,0
    800010e4:	00289793          	slli	a5,a7,0x2
    800010e8:	00f58733          	add	a4,a1,a5
    800010ec:	00f60333          	add	t1,a2,a5
    800010f0:	00072703          	lw	a4,0(a4)
    800010f4:	00032303          	lw	t1,0(t1)
    800010f8:	00f687b3          	add	a5,a3,a5
    800010fc:	00180813          	addi	a6,a6,1
    80001100:	0067073b          	addw	a4,a4,t1
    80001104:	00e7a023          	sw	a4,0(a5)
    80001108:	01c888bb          	addw	a7,a7,t3
    8000110c:	fd051ce3          	bne	a0,a6,800010e4 <matrix_add+0x14>
    80001110:	001e8e93          	addi	t4,t4,1
    80001114:	fcae94e3          	bne	t4,a0,800010dc <matrix_add+0xc>
    80001118:	00008067          	ret

000000008000111c <matrix_print>:
    8000111c:	0c050463          	beqz	a0,800011e4 <matrix_print+0xc8>
    80001120:	fb010113          	addi	sp,sp,-80
    80001124:	04813023          	sd	s0,64(sp)
    80001128:	02913c23          	sd	s1,56(sp)
    8000112c:	03213823          	sd	s2,48(sp)
    80001130:	03313423          	sd	s3,40(sp)
    80001134:	03413023          	sd	s4,32(sp)
    80001138:	01513c23          	sd	s5,24(sp)
    8000113c:	01613823          	sd	s6,16(sp)
    80001140:	01713423          	sd	s7,8(sp)
    80001144:	04113423          	sd	ra,72(sp)
    80001148:	00058993          	mv	s3,a1
    8000114c:	00050913          	mv	s2,a0
    80001150:	fff50b13          	addi	s6,a0,-1
    80001154:	00060493          	mv	s1,a2
    80001158:	00000413          	li	s0,0
    8000115c:	00001a97          	auipc	s5,0x1
    80001160:	18ca8a93          	addi	s5,s5,396 # 800022e8 <input_cond+0x468>
    80001164:	00001a17          	auipc	s4,0x1
    80001168:	18ca0a13          	addi	s4,s4,396 # 800022f0 <input_cond+0x470>
    8000116c:	00001b97          	auipc	s7,0x1
    80001170:	18cb8b93          	addi	s7,s7,396 # 800022f8 <input_cond+0x478>
    80001174:	0004a583          	lw	a1,0(s1)
    80001178:	000a8513          	mv	a0,s5
    8000117c:	00448493          	addi	s1,s1,4
    80001180:	74c000ef          	jal	ra,800018cc <printf>
    80001184:	000a0513          	mv	a0,s4
    80001188:	008b0463          	beq	s6,s0,80001190 <matrix_print+0x74>
    8000118c:	740000ef          	jal	ra,800018cc <printf>
    80001190:	00140413          	addi	s0,s0,1
    80001194:	033477b3          	remu	a5,s0,s3
    80001198:	02078e63          	beqz	a5,800011d4 <matrix_print+0xb8>
    8000119c:	fd241ce3          	bne	s0,s2,80001174 <matrix_print+0x58>
    800011a0:	04013403          	ld	s0,64(sp)
    800011a4:	04813083          	ld	ra,72(sp)
    800011a8:	03813483          	ld	s1,56(sp)
    800011ac:	03013903          	ld	s2,48(sp)
    800011b0:	02813983          	ld	s3,40(sp)
    800011b4:	02013a03          	ld	s4,32(sp)
    800011b8:	01813a83          	ld	s5,24(sp)
    800011bc:	01013b03          	ld	s6,16(sp)
    800011c0:	00813b83          	ld	s7,8(sp)
    800011c4:	00001517          	auipc	a0,0x1
    800011c8:	13450513          	addi	a0,a0,308 # 800022f8 <input_cond+0x478>
    800011cc:	05010113          	addi	sp,sp,80
    800011d0:	6fc0006f          	j	800018cc <printf>
    800011d4:	000b8513          	mv	a0,s7
    800011d8:	6f4000ef          	jal	ra,800018cc <printf>
    800011dc:	f9241ce3          	bne	s0,s2,80001174 <matrix_print+0x58>
    800011e0:	fc1ff06f          	j	800011a0 <matrix_print+0x84>
    800011e4:	00001517          	auipc	a0,0x1
    800011e8:	11450513          	addi	a0,a0,276 # 800022f8 <input_cond+0x478>
    800011ec:	6e00006f          	j	800018cc <printf>

00000000800011f0 <matrix_copy>:
    800011f0:	02050063          	beqz	a0,80001210 <matrix_copy+0x20>
    800011f4:	00251513          	slli	a0,a0,0x2
    800011f8:	00a58533          	add	a0,a1,a0
    800011fc:	0005a783          	lw	a5,0(a1)
    80001200:	00460613          	addi	a2,a2,4
    80001204:	00458593          	addi	a1,a1,4
    80001208:	fef62e23          	sw	a5,-4(a2)
    8000120c:	fea598e3          	bne	a1,a0,800011fc <matrix_copy+0xc>
    80001210:	00008067          	ret

0000000080001214 <verify>:
    80001214:	02050e63          	beqz	a0,80001250 <verify+0x3c>
    80001218:	0005a703          	lw	a4,0(a1)
    8000121c:	00062783          	lw	a5,0(a2)
    80001220:	02f71c63          	bne	a4,a5,80001258 <verify+0x44>
    80001224:	00458593          	addi	a1,a1,4
    80001228:	00460613          	addi	a2,a2,4
    8000122c:	00000793          	li	a5,0
    80001230:	0180006f          	j	80001248 <verify+0x34>
    80001234:	0005a683          	lw	a3,0(a1)
    80001238:	00062703          	lw	a4,0(a2)
    8000123c:	00458593          	addi	a1,a1,4
    80001240:	00460613          	addi	a2,a2,4
    80001244:	00e69a63          	bne	a3,a4,80001258 <verify+0x44>
    80001248:	00178793          	addi	a5,a5,1
    8000124c:	fef514e3          	bne	a0,a5,80001234 <verify+0x20>
    80001250:	00000513          	li	a0,0
    80001254:	00008067          	ret
    80001258:	00100513          	li	a0,1
    8000125c:	00008067          	ret

0000000080001260 <vprintfmt>:
    80001260:	ea010113          	addi	sp,sp,-352
    80001264:	14813823          	sd	s0,336(sp)
    80001268:	14913423          	sd	s1,328(sp)
    8000126c:	15213023          	sd	s2,320(sp)
    80001270:	13413823          	sd	s4,304(sp)
    80001274:	13513423          	sd	s5,296(sp)
    80001278:	13613023          	sd	s6,288(sp)
    8000127c:	14113c23          	sd	ra,344(sp)
    80001280:	13313c23          	sd	s3,312(sp)
    80001284:	11713c23          	sd	s7,280(sp)
    80001288:	11813823          	sd	s8,272(sp)
    8000128c:	11913423          	sd	s9,264(sp)
    80001290:	00050913          	mv	s2,a0
    80001294:	00058493          	mv	s1,a1
    80001298:	00060413          	mv	s0,a2
    8000129c:	00068b13          	mv	s6,a3
    800012a0:	02500a13          	li	s4,37
    800012a4:	00001a97          	auipc	s5,0x1
    800012a8:	eeca8a93          	addi	s5,s5,-276 # 80002190 <input_cond+0x310>
    800012ac:	0140006f          	j	800012c0 <vprintfmt+0x60>
    800012b0:	06050063          	beqz	a0,80001310 <vprintfmt+0xb0>
    800012b4:	00048593          	mv	a1,s1
    800012b8:	00140413          	addi	s0,s0,1
    800012bc:	000900e7          	jalr	s2
    800012c0:	00044503          	lbu	a0,0(s0)
    800012c4:	ff4516e3          	bne	a0,s4,800012b0 <vprintfmt+0x50>
    800012c8:	00144683          	lbu	a3,1(s0)
    800012cc:	00140c93          	addi	s9,s0,1
    800012d0:	000c8713          	mv	a4,s9
    800012d4:	02000b93          	li	s7,32
    800012d8:	fff00993          	li	s3,-1
    800012dc:	fff00c13          	li	s8,-1
    800012e0:	00000593          	li	a1,0
    800012e4:	05500613          	li	a2,85
    800012e8:	00900513          	li	a0,9
    800012ec:	fdd6879b          	addiw	a5,a3,-35
    800012f0:	0ff7f793          	andi	a5,a5,255
    800012f4:	00170413          	addi	s0,a4,1
    800012f8:	2af66863          	bltu	a2,a5,800015a8 <vprintfmt+0x348>
    800012fc:	00279793          	slli	a5,a5,0x2
    80001300:	015787b3          	add	a5,a5,s5
    80001304:	0007a783          	lw	a5,0(a5)
    80001308:	015787b3          	add	a5,a5,s5
    8000130c:	00078067          	jr	a5
    80001310:	15813083          	ld	ra,344(sp)
    80001314:	15013403          	ld	s0,336(sp)
    80001318:	14813483          	ld	s1,328(sp)
    8000131c:	14013903          	ld	s2,320(sp)
    80001320:	13813983          	ld	s3,312(sp)
    80001324:	13013a03          	ld	s4,304(sp)
    80001328:	12813a83          	ld	s5,296(sp)
    8000132c:	12013b03          	ld	s6,288(sp)
    80001330:	11813b83          	ld	s7,280(sp)
    80001334:	11013c03          	ld	s8,272(sp)
    80001338:	10813c83          	ld	s9,264(sp)
    8000133c:	16010113          	addi	sp,sp,352
    80001340:	00008067          	ret
    80001344:	00800713          	li	a4,8
    80001348:	00100793          	li	a5,1
    8000134c:	008b0693          	addi	a3,s6,8
    80001350:	12b7d863          	ble	a1,a5,80001480 <vprintfmt+0x220>
    80001354:	000b3783          	ld	a5,0(s6)
    80001358:	00068b13          	mv	s6,a3
    8000135c:	02e7f6b3          	remu	a3,a5,a4
    80001360:	000b8b9b          	sext.w	s7,s7
    80001364:	00410613          	addi	a2,sp,4
    80001368:	00100993          	li	s3,1
    8000136c:	00d12023          	sw	a3,0(sp)
    80001370:	00e7f663          	bleu	a4,a5,8000137c <vprintfmt+0x11c>
    80001374:	2480006f          	j	800015bc <vprintfmt+0x35c>
    80001378:	000c8993          	mv	s3,s9
    8000137c:	02e7d7b3          	divu	a5,a5,a4
    80001380:	00460613          	addi	a2,a2,4
    80001384:	00198c9b          	addiw	s9,s3,1
    80001388:	02e7f6b3          	remu	a3,a5,a4
    8000138c:	fed62e23          	sw	a3,-4(a2)
    80001390:	fee7f4e3          	bleu	a4,a5,80001378 <vprintfmt+0x118>
    80001394:	018cde63          	ble	s8,s9,800013b0 <vprintfmt+0x150>
    80001398:	000c0c1b          	sext.w	s8,s8
    8000139c:	fffc0c1b          	addiw	s8,s8,-1
    800013a0:	00048593          	mv	a1,s1
    800013a4:	000b8513          	mv	a0,s7
    800013a8:	000900e7          	jalr	s2
    800013ac:	ff8cc8e3          	blt	s9,s8,8000139c <vprintfmt+0x13c>
    800013b0:	00299793          	slli	a5,s3,0x2
    800013b4:	10010713          	addi	a4,sp,256
    800013b8:	00f707b3          	add	a5,a4,a5
    800013bc:	f007a683          	lw	a3,-256(a5)
    800013c0:	fff98b9b          	addiw	s7,s3,-1
    800013c4:	002b9b93          	slli	s7,s7,0x2
    800013c8:	01710bb3          	add	s7,sp,s7
    800013cc:	00900c13          	li	s8,9
    800013d0:	0100006f          	j	800013e0 <vprintfmt+0x180>
    800013d4:	000ba683          	lw	a3,0(s7)
    800013d8:	fff98993          	addi	s3,s3,-1
    800013dc:	ffcb8b93          	addi	s7,s7,-4
    800013e0:	03000513          	li	a0,48
    800013e4:	00dc7463          	bleu	a3,s8,800013ec <vprintfmt+0x18c>
    800013e8:	05700513          	li	a0,87
    800013ec:	00048593          	mv	a1,s1
    800013f0:	00d5053b          	addw	a0,a0,a3
    800013f4:	000900e7          	jalr	s2
    800013f8:	0009879b          	sext.w	a5,s3
    800013fc:	fcf04ce3          	bgtz	a5,800013d4 <vprintfmt+0x174>
    80001400:	ec1ff06f          	j	800012c0 <vprintfmt+0x60>
    80001404:	03000513          	li	a0,48
    80001408:	00048593          	mv	a1,s1
    8000140c:	000900e7          	jalr	s2
    80001410:	00048593          	mv	a1,s1
    80001414:	07800513          	li	a0,120
    80001418:	000900e7          	jalr	s2
    8000141c:	008b0693          	addi	a3,s6,8
    80001420:	01000713          	li	a4,16
    80001424:	f31ff06f          	j	80001354 <vprintfmt+0xf4>
    80001428:	000b3c83          	ld	s9,0(s6)
    8000142c:	008b0b13          	addi	s6,s6,8
    80001430:	200c8c63          	beqz	s9,80001648 <vprintfmt+0x3e8>
    80001434:	1b805463          	blez	s8,800015dc <vprintfmt+0x37c>
    80001438:	02d00793          	li	a5,45
    8000143c:	1efb8e63          	beq	s7,a5,80001638 <vprintfmt+0x3d8>
    80001440:	000c059b          	sext.w	a1,s8
    80001444:	20098e63          	beqz	s3,80001660 <vprintfmt+0x400>
    80001448:	000cc783          	lbu	a5,0(s9)
    8000144c:	20078a63          	beqz	a5,80001660 <vprintfmt+0x400>
    80001450:	001c8793          	addi	a5,s9,1
    80001454:	013c8633          	add	a2,s9,s3
    80001458:	24f60463          	beq	a2,a5,800016a0 <vprintfmt+0x440>
    8000145c:	00178713          	addi	a4,a5,1
    80001460:	fff74683          	lbu	a3,-1(a4)
    80001464:	16068663          	beqz	a3,800015d0 <vprintfmt+0x370>
    80001468:	00070793          	mv	a5,a4
    8000146c:	fedff06f          	j	80001458 <vprintfmt+0x1f8>
    80001470:	00100793          	li	a5,1
    80001474:	00a00713          	li	a4,10
    80001478:	008b0693          	addi	a3,s6,8
    8000147c:	ecb7cce3          	blt	a5,a1,80001354 <vprintfmt+0xf4>
    80001480:	ec059ae3          	bnez	a1,80001354 <vprintfmt+0xf4>
    80001484:	000b6783          	lwu	a5,0(s6)
    80001488:	00068b13          	mv	s6,a3
    8000148c:	ed1ff06f          	j	8000135c <vprintfmt+0xfc>
    80001490:	00174683          	lbu	a3,1(a4)
    80001494:	00040713          	mv	a4,s0
    80001498:	e55ff06f          	j	800012ec <vprintfmt+0x8c>
    8000149c:	00048593          	mv	a1,s1
    800014a0:	02500513          	li	a0,37
    800014a4:	000900e7          	jalr	s2
    800014a8:	e19ff06f          	j	800012c0 <vprintfmt+0x60>
    800014ac:	01000713          	li	a4,16
    800014b0:	e99ff06f          	j	80001348 <vprintfmt+0xe8>
    800014b4:	000b2983          	lw	s3,0(s6)
    800014b8:	00174683          	lbu	a3,1(a4)
    800014bc:	008b0b13          	addi	s6,s6,8
    800014c0:	00040713          	mv	a4,s0
    800014c4:	e20c54e3          	bgez	s8,800012ec <vprintfmt+0x8c>
    800014c8:	00098c13          	mv	s8,s3
    800014cc:	fff00993          	li	s3,-1
    800014d0:	e1dff06f          	j	800012ec <vprintfmt+0x8c>
    800014d4:	00174683          	lbu	a3,1(a4)
    800014d8:	02d00b93          	li	s7,45
    800014dc:	00040713          	mv	a4,s0
    800014e0:	e0dff06f          	j	800012ec <vprintfmt+0x8c>
    800014e4:	fffc4793          	not	a5,s8
    800014e8:	43f7d793          	srai	a5,a5,0x3f
    800014ec:	00fc7c33          	and	s8,s8,a5
    800014f0:	00174683          	lbu	a3,1(a4)
    800014f4:	000c0c1b          	sext.w	s8,s8
    800014f8:	00040713          	mv	a4,s0
    800014fc:	df1ff06f          	j	800012ec <vprintfmt+0x8c>
    80001500:	00174683          	lbu	a3,1(a4)
    80001504:	03000b93          	li	s7,48
    80001508:	00040713          	mv	a4,s0
    8000150c:	de1ff06f          	j	800012ec <vprintfmt+0x8c>
    80001510:	fd06899b          	addiw	s3,a3,-48
    80001514:	00174683          	lbu	a3,1(a4)
    80001518:	00040713          	mv	a4,s0
    8000151c:	fd06879b          	addiw	a5,a3,-48
    80001520:	0006881b          	sext.w	a6,a3
    80001524:	faf560e3          	bltu	a0,a5,800014c4 <vprintfmt+0x264>
    80001528:	00170713          	addi	a4,a4,1
    8000152c:	0029979b          	slliw	a5,s3,0x2
    80001530:	00074683          	lbu	a3,0(a4)
    80001534:	013789bb          	addw	s3,a5,s3
    80001538:	0019999b          	slliw	s3,s3,0x1
    8000153c:	010989bb          	addw	s3,s3,a6
    80001540:	fd06879b          	addiw	a5,a3,-48
    80001544:	fd09899b          	addiw	s3,s3,-48
    80001548:	0006881b          	sext.w	a6,a3
    8000154c:	fcf57ee3          	bleu	a5,a0,80001528 <vprintfmt+0x2c8>
    80001550:	f75ff06f          	j	800014c4 <vprintfmt+0x264>
    80001554:	000b2503          	lw	a0,0(s6)
    80001558:	00048593          	mv	a1,s1
    8000155c:	008b0b13          	addi	s6,s6,8
    80001560:	000900e7          	jalr	s2
    80001564:	d5dff06f          	j	800012c0 <vprintfmt+0x60>
    80001568:	00100793          	li	a5,1
    8000156c:	008b0c93          	addi	s9,s6,8
    80001570:	0ab7de63          	ble	a1,a5,8000162c <vprintfmt+0x3cc>
    80001574:	000b3983          	ld	s3,0(s6)
    80001578:	1009d263          	bgez	s3,8000167c <vprintfmt+0x41c>
    8000157c:	00048593          	mv	a1,s1
    80001580:	02d00513          	li	a0,45
    80001584:	000900e7          	jalr	s2
    80001588:	000c8b13          	mv	s6,s9
    8000158c:	413007b3          	neg	a5,s3
    80001590:	00a00713          	li	a4,10
    80001594:	dc9ff06f          	j	8000135c <vprintfmt+0xfc>
    80001598:	00174683          	lbu	a3,1(a4)
    8000159c:	0015859b          	addiw	a1,a1,1
    800015a0:	00040713          	mv	a4,s0
    800015a4:	d49ff06f          	j	800012ec <vprintfmt+0x8c>
    800015a8:	00048593          	mv	a1,s1
    800015ac:	02500513          	li	a0,37
    800015b0:	000900e7          	jalr	s2
    800015b4:	000c8413          	mv	s0,s9
    800015b8:	d09ff06f          	j	800012c0 <vprintfmt+0x60>
    800015bc:	00100793          	li	a5,1
    800015c0:	00000993          	li	s3,0
    800015c4:	00100c93          	li	s9,1
    800015c8:	dd87c8e3          	blt	a5,s8,80001398 <vprintfmt+0x138>
    800015cc:	df5ff06f          	j	800013c0 <vprintfmt+0x160>
    800015d0:	41978c33          	sub	s8,a5,s9
    800015d4:	41858c3b          	subw	s8,a1,s8
    800015d8:	09804463          	bgtz	s8,80001660 <vprintfmt+0x400>
    800015dc:	000cc503          	lbu	a0,0(s9)
    800015e0:	ce0500e3          	beqz	a0,800012c0 <vprintfmt+0x60>
    800015e4:	fff00b93          	li	s7,-1
    800015e8:	0209dc63          	bgez	s3,80001620 <vprintfmt+0x3c0>
    800015ec:	00048593          	mv	a1,s1
    800015f0:	001c8c93          	addi	s9,s9,1
    800015f4:	000900e7          	jalr	s2
    800015f8:	000cc503          	lbu	a0,0(s9)
    800015fc:	fffc0c1b          	addiw	s8,s8,-1
    80001600:	fe0514e3          	bnez	a0,800015e8 <vprintfmt+0x388>
    80001604:	cb805ee3          	blez	s8,800012c0 <vprintfmt+0x60>
    80001608:	fffc0c1b          	addiw	s8,s8,-1
    8000160c:	00048593          	mv	a1,s1
    80001610:	02000513          	li	a0,32
    80001614:	000900e7          	jalr	s2
    80001618:	fe0c18e3          	bnez	s8,80001608 <vprintfmt+0x3a8>
    8000161c:	ca5ff06f          	j	800012c0 <vprintfmt+0x60>
    80001620:	fff9899b          	addiw	s3,s3,-1
    80001624:	fd7994e3          	bne	s3,s7,800015ec <vprintfmt+0x38c>
    80001628:	fddff06f          	j	80001604 <vprintfmt+0x3a4>
    8000162c:	f40594e3          	bnez	a1,80001574 <vprintfmt+0x314>
    80001630:	000b2983          	lw	s3,0(s6)
    80001634:	f45ff06f          	j	80001578 <vprintfmt+0x318>
    80001638:	000cc503          	lbu	a0,0(s9)
    8000163c:	fc0506e3          	beqz	a0,80001608 <vprintfmt+0x3a8>
    80001640:	fff00b93          	li	s7,-1
    80001644:	fa5ff06f          	j	800015e8 <vprintfmt+0x388>
    80001648:	05805263          	blez	s8,8000168c <vprintfmt+0x42c>
    8000164c:	02d00793          	li	a5,45
    80001650:	02fb8e63          	beq	s7,a5,8000168c <vprintfmt+0x42c>
    80001654:	00001c97          	auipc	s9,0x1
    80001658:	cacc8c93          	addi	s9,s9,-852 # 80002300 <input_cond+0x480>
    8000165c:	de5ff06f          	j	80001440 <vprintfmt+0x1e0>
    80001660:	000b8b9b          	sext.w	s7,s7
    80001664:	fffc0c1b          	addiw	s8,s8,-1
    80001668:	00048593          	mv	a1,s1
    8000166c:	000b8513          	mv	a0,s7
    80001670:	000900e7          	jalr	s2
    80001674:	fe0c18e3          	bnez	s8,80001664 <vprintfmt+0x404>
    80001678:	f65ff06f          	j	800015dc <vprintfmt+0x37c>
    8000167c:	00098793          	mv	a5,s3
    80001680:	000c8b13          	mv	s6,s9
    80001684:	00a00713          	li	a4,10
    80001688:	cd5ff06f          	j	8000135c <vprintfmt+0xfc>
    8000168c:	00001c97          	auipc	s9,0x1
    80001690:	c74c8c93          	addi	s9,s9,-908 # 80002300 <input_cond+0x480>
    80001694:	02800513          	li	a0,40
    80001698:	fff00b93          	li	s7,-1
    8000169c:	f4dff06f          	j	800015e8 <vprintfmt+0x388>
    800016a0:	41960c33          	sub	s8,a2,s9
    800016a4:	41858c3b          	subw	s8,a1,s8
    800016a8:	fb804ce3          	bgtz	s8,80001660 <vprintfmt+0x400>
    800016ac:	f31ff06f          	j	800015dc <vprintfmt+0x37c>

00000000800016b0 <sprintf_putch.2952>:
    800016b0:	0005b783          	ld	a5,0(a1)
    800016b4:	00a78023          	sb	a0,0(a5)
    800016b8:	0005b783          	ld	a5,0(a1)
    800016bc:	00178793          	addi	a5,a5,1
    800016c0:	00f5b023          	sd	a5,0(a1)
    800016c4:	00008067          	ret

00000000800016c8 <putchar>:
    800016c8:	04022803          	lw	a6,64(tp) # 40 <buflen.2838>
    800016cc:	00020793          	mv	a5,tp
    800016d0:	010787b3          	add	a5,a5,a6
    800016d4:	f8010113          	addi	sp,sp,-128
    800016d8:	0018069b          	addiw	a3,a6,1
    800016dc:	04d22023          	sw	a3,64(tp) # 40 <buflen.2838>
    800016e0:	00a78023          	sb	a0,0(a5)
    800016e4:	03f10713          	addi	a4,sp,63
    800016e8:	00a00793          	li	a5,10
    800016ec:	fc077713          	andi	a4,a4,-64
    800016f0:	00f50c63          	beq	a0,a5,80001708 <putchar+0x40>
    800016f4:	04000793          	li	a5,64
    800016f8:	00f68863          	beq	a3,a5,80001708 <putchar+0x40>
    800016fc:	00000513          	li	a0,0
    80001700:	08010113          	addi	sp,sp,128
    80001704:	00008067          	ret
    80001708:	04000793          	li	a5,64
    8000170c:	00f73023          	sd	a5,0(a4)
    80001710:	00100793          	li	a5,1
    80001714:	00f73423          	sd	a5,8(a4)
    80001718:	00020613          	mv	a2,tp
    8000171c:	00c73823          	sd	a2,16(a4)
    80001720:	00d73c23          	sd	a3,24(a4)
    80001724:	0ff0000f          	fence
    80001728:	00000797          	auipc	a5,0x0
    8000172c:	8ce7bc23          	sd	a4,-1832(a5) # 80001000 <tohost>
    80001730:	00000697          	auipc	a3,0x0
    80001734:	91068693          	addi	a3,a3,-1776 # 80001040 <fromhost>
    80001738:	0006b783          	ld	a5,0(a3)
    8000173c:	fe078ee3          	beqz	a5,80001738 <putchar+0x70>
    80001740:	00000797          	auipc	a5,0x0
    80001744:	9007b023          	sd	zero,-1792(a5) # 80001040 <fromhost>
    80001748:	0ff0000f          	fence
    8000174c:	04022023          	sw	zero,64(tp) # 40 <buflen.2838>
    80001750:	00073783          	ld	a5,0(a4)
    80001754:	00000513          	li	a0,0
    80001758:	08010113          	addi	sp,sp,128
    8000175c:	00008067          	ret

0000000080001760 <setStats>:
    80001760:	b00027f3          	csrr	a5,mcycle
    80001764:	e2018713          	addi	a4,gp,-480 # 80003298 <counters>
    80001768:	00051c63          	bnez	a0,80001780 <setStats+0x20>
    8000176c:	00073683          	ld	a3,0(a4)
    80001770:	00001617          	auipc	a2,0x1
    80001774:	b9860613          	addi	a2,a2,-1128 # 80002308 <input_cond+0x488>
    80001778:	e2c1b823          	sd	a2,-464(gp) # 800032a8 <counter_names>
    8000177c:	40d787b3          	sub	a5,a5,a3
    80001780:	e2f1b023          	sd	a5,-480(gp) # 80003298 <counters>
    80001784:	b02027f3          	csrr	a5,minstret
    80001788:	00051c63          	bnez	a0,800017a0 <setStats+0x40>
    8000178c:	00873703          	ld	a4,8(a4)
    80001790:	00001697          	auipc	a3,0x1
    80001794:	b8068693          	addi	a3,a3,-1152 # 80002310 <input_cond+0x490>
    80001798:	e2d1bc23          	sd	a3,-456(gp) # 800032b0 <counter_names+0x8>
    8000179c:	40e787b3          	sub	a5,a5,a4
    800017a0:	e2f1b423          	sd	a5,-472(gp) # 800032a0 <counters+0x8>
    800017a4:	00008067          	ret

00000000800017a8 <tohost_exit>:
    800017a8:	00151793          	slli	a5,a0,0x1
    800017ac:	0017e793          	ori	a5,a5,1
    800017b0:	00000717          	auipc	a4,0x0
    800017b4:	84f73823          	sd	a5,-1968(a4) # 80001000 <tohost>
    800017b8:	0000006f          	j	800017b8 <tohost_exit+0x10>

00000000800017bc <handle_trap>:
    800017bc:	000017b7          	lui	a5,0x1
    800017c0:	a7378793          	addi	a5,a5,-1421 # a73 <_tbss_end+0xa2f>
    800017c4:	00000717          	auipc	a4,0x0
    800017c8:	82f73e23          	sd	a5,-1988(a4) # 80001000 <tohost>
    800017cc:	0000006f          	j	800017cc <handle_trap+0x10>

00000000800017d0 <exit>:
    800017d0:	ff010113          	addi	sp,sp,-16
    800017d4:	00113423          	sd	ra,8(sp)
    800017d8:	fd1ff0ef          	jal	ra,800017a8 <tohost_exit>

00000000800017dc <abort>:
    800017dc:	10d00793          	li	a5,269
    800017e0:	00000717          	auipc	a4,0x0
    800017e4:	82f73023          	sd	a5,-2016(a4) # 80001000 <tohost>
    800017e8:	0000006f          	j	800017e8 <abort+0xc>

00000000800017ec <printstr>:
    800017ec:	00054783          	lbu	a5,0(a0)
    800017f0:	f8010113          	addi	sp,sp,-128
    800017f4:	03f10713          	addi	a4,sp,63
    800017f8:	00050693          	mv	a3,a0
    800017fc:	fc077713          	andi	a4,a4,-64
    80001800:	06078263          	beqz	a5,80001864 <printstr+0x78>
    80001804:	00050613          	mv	a2,a0
    80001808:	00150513          	addi	a0,a0,1
    8000180c:	00054783          	lbu	a5,0(a0)
    80001810:	fe079ce3          	bnez	a5,80001808 <printstr+0x1c>
    80001814:	40c50533          	sub	a0,a0,a2
    80001818:	04000793          	li	a5,64
    8000181c:	00f73023          	sd	a5,0(a4)
    80001820:	00100793          	li	a5,1
    80001824:	00f73423          	sd	a5,8(a4)
    80001828:	00d73823          	sd	a3,16(a4)
    8000182c:	00a73c23          	sd	a0,24(a4)
    80001830:	0ff0000f          	fence
    80001834:	fffff797          	auipc	a5,0xfffff
    80001838:	7ce7b623          	sd	a4,1996(a5) # 80001000 <tohost>
    8000183c:	00000697          	auipc	a3,0x0
    80001840:	80468693          	addi	a3,a3,-2044 # 80001040 <fromhost>
    80001844:	0006b783          	ld	a5,0(a3)
    80001848:	fe078ee3          	beqz	a5,80001844 <printstr+0x58>
    8000184c:	fffff797          	auipc	a5,0xfffff
    80001850:	7e07ba23          	sd	zero,2036(a5) # 80001040 <fromhost>
    80001854:	0ff0000f          	fence
    80001858:	00073783          	ld	a5,0(a4)
    8000185c:	08010113          	addi	sp,sp,128
    80001860:	00008067          	ret
    80001864:	00000513          	li	a0,0
    80001868:	fb1ff06f          	j	80001818 <printstr+0x2c>

000000008000186c <thread_entry>:
    8000186c:	00050463          	beqz	a0,80001874 <thread_entry+0x8>
    80001870:	0000006f          	j	80001870 <thread_entry+0x4>
    80001874:	00008067          	ret

0000000080001878 <printhex>:
    80001878:	fd010113          	addi	sp,sp,-48
    8000187c:	02113423          	sd	ra,40(sp)
    80001880:	01710713          	addi	a4,sp,23
    80001884:	00710813          	addi	a6,sp,7
    80001888:	00900593          	li	a1,9
    8000188c:	00f57793          	andi	a5,a0,15
    80001890:	03000613          	li	a2,48
    80001894:	0ff7f693          	andi	a3,a5,255
    80001898:	00f5f463          	bleu	a5,a1,800018a0 <printhex+0x28>
    8000189c:	05700613          	li	a2,87
    800018a0:	00c687bb          	addw	a5,a3,a2
    800018a4:	00f70023          	sb	a5,0(a4)
    800018a8:	fff70713          	addi	a4,a4,-1
    800018ac:	00455513          	srli	a0,a0,0x4
    800018b0:	fce81ee3          	bne	a6,a4,8000188c <printhex+0x14>
    800018b4:	00810513          	addi	a0,sp,8
    800018b8:	00010c23          	sb	zero,24(sp)
    800018bc:	f31ff0ef          	jal	ra,800017ec <printstr>
    800018c0:	02813083          	ld	ra,40(sp)
    800018c4:	03010113          	addi	sp,sp,48
    800018c8:	00008067          	ret

00000000800018cc <printf>:
    800018cc:	fa010113          	addi	sp,sp,-96
    800018d0:	02810313          	addi	t1,sp,40
    800018d4:	02b13423          	sd	a1,40(sp)
    800018d8:	02c13823          	sd	a2,48(sp)
    800018dc:	02d13c23          	sd	a3,56(sp)
    800018e0:	00050613          	mv	a2,a0
    800018e4:	00030693          	mv	a3,t1
    800018e8:	00000517          	auipc	a0,0x0
    800018ec:	de050513          	addi	a0,a0,-544 # 800016c8 <putchar>
    800018f0:	00000593          	li	a1,0
    800018f4:	00113c23          	sd	ra,24(sp)
    800018f8:	04e13023          	sd	a4,64(sp)
    800018fc:	04f13423          	sd	a5,72(sp)
    80001900:	05013823          	sd	a6,80(sp)
    80001904:	05113c23          	sd	a7,88(sp)
    80001908:	00613423          	sd	t1,8(sp)
    8000190c:	955ff0ef          	jal	ra,80001260 <vprintfmt>
    80001910:	01813083          	ld	ra,24(sp)
    80001914:	00000513          	li	a0,0
    80001918:	06010113          	addi	sp,sp,96
    8000191c:	00008067          	ret

0000000080001920 <sprintf>:
    80001920:	fa010113          	addi	sp,sp,-96
    80001924:	03010313          	addi	t1,sp,48
    80001928:	02813023          	sd	s0,32(sp)
    8000192c:	00a13423          	sd	a0,8(sp)
    80001930:	02c13823          	sd	a2,48(sp)
    80001934:	02d13c23          	sd	a3,56(sp)
    80001938:	00050413          	mv	s0,a0
    8000193c:	00058613          	mv	a2,a1
    80001940:	00000517          	auipc	a0,0x0
    80001944:	d7050513          	addi	a0,a0,-656 # 800016b0 <sprintf_putch.2952>
    80001948:	00810593          	addi	a1,sp,8
    8000194c:	00030693          	mv	a3,t1
    80001950:	02113423          	sd	ra,40(sp)
    80001954:	04f13423          	sd	a5,72(sp)
    80001958:	04e13023          	sd	a4,64(sp)
    8000195c:	05013823          	sd	a6,80(sp)
    80001960:	05113c23          	sd	a7,88(sp)
    80001964:	00613c23          	sd	t1,24(sp)
    80001968:	8f9ff0ef          	jal	ra,80001260 <vprintfmt>
    8000196c:	00813783          	ld	a5,8(sp)
    80001970:	00078023          	sb	zero,0(a5)
    80001974:	00813503          	ld	a0,8(sp)
    80001978:	02813083          	ld	ra,40(sp)
    8000197c:	4085053b          	subw	a0,a0,s0
    80001980:	02013403          	ld	s0,32(sp)
    80001984:	06010113          	addi	sp,sp,96
    80001988:	00008067          	ret

000000008000198c <memcpy>:
    8000198c:	00c5e7b3          	or	a5,a1,a2
    80001990:	00f567b3          	or	a5,a0,a5
    80001994:	0077f793          	andi	a5,a5,7
    80001998:	00c506b3          	add	a3,a0,a2
    8000199c:	02078463          	beqz	a5,800019c4 <memcpy+0x38>
    800019a0:	00c58633          	add	a2,a1,a2
    800019a4:	00050793          	mv	a5,a0
    800019a8:	02d57e63          	bleu	a3,a0,800019e4 <memcpy+0x58>
    800019ac:	00158593          	addi	a1,a1,1
    800019b0:	fff5c703          	lbu	a4,-1(a1)
    800019b4:	00178793          	addi	a5,a5,1
    800019b8:	fee78fa3          	sb	a4,-1(a5)
    800019bc:	feb618e3          	bne	a2,a1,800019ac <memcpy+0x20>
    800019c0:	00008067          	ret
    800019c4:	fed57ee3          	bleu	a3,a0,800019c0 <memcpy+0x34>
    800019c8:	00050793          	mv	a5,a0
    800019cc:	00858593          	addi	a1,a1,8
    800019d0:	ff85b703          	ld	a4,-8(a1)
    800019d4:	00878793          	addi	a5,a5,8
    800019d8:	fee7bc23          	sd	a4,-8(a5)
    800019dc:	fed7e8e3          	bltu	a5,a3,800019cc <memcpy+0x40>
    800019e0:	00008067          	ret
    800019e4:	00008067          	ret

00000000800019e8 <memset>:
    800019e8:	00c567b3          	or	a5,a0,a2
    800019ec:	0077f793          	andi	a5,a5,7
    800019f0:	00c50633          	add	a2,a0,a2
    800019f4:	0ff5f593          	andi	a1,a1,255
    800019f8:	00078e63          	beqz	a5,80001a14 <memset+0x2c>
    800019fc:	00050793          	mv	a5,a0
    80001a00:	04c57263          	bleu	a2,a0,80001a44 <memset+0x5c>
    80001a04:	00178793          	addi	a5,a5,1
    80001a08:	feb78fa3          	sb	a1,-1(a5)
    80001a0c:	fef61ce3          	bne	a2,a5,80001a04 <memset+0x1c>
    80001a10:	00008067          	ret
    80001a14:	00859793          	slli	a5,a1,0x8
    80001a18:	00f5e7b3          	or	a5,a1,a5
    80001a1c:	01079593          	slli	a1,a5,0x10
    80001a20:	00b7e7b3          	or	a5,a5,a1
    80001a24:	02079713          	slli	a4,a5,0x20
    80001a28:	00e7e7b3          	or	a5,a5,a4
    80001a2c:	fec572e3          	bleu	a2,a0,80001a10 <memset+0x28>
    80001a30:	00050713          	mv	a4,a0
    80001a34:	00870713          	addi	a4,a4,8
    80001a38:	fef73c23          	sd	a5,-8(a4)
    80001a3c:	fec76ce3          	bltu	a4,a2,80001a34 <memset+0x4c>
    80001a40:	00008067          	ret
    80001a44:	00008067          	ret

0000000080001a48 <_init>:
    80001a48:	f4010113          	addi	sp,sp,-192
    80001a4c:	0a813823          	sd	s0,176(sp)
    80001a50:	0a913423          	sd	s1,168(sp)
    80001a54:	00020493          	mv	s1,tp
    80001a58:	00020413          	mv	s0,tp
    80001a5c:	40848433          	sub	s0,s1,s0
    80001a60:	00040613          	mv	a2,s0
    80001a64:	09313c23          	sd	s3,152(sp)
    80001a68:	09413823          	sd	s4,144(sp)
    80001a6c:	00050993          	mv	s3,a0
    80001a70:	00058a13          	mv	s4,a1
    80001a74:	00020513          	mv	a0,tp
    80001a78:	e4818593          	addi	a1,gp,-440 # 800032c0 <_end>
    80001a7c:	0a113c23          	sd	ra,184(sp)
    80001a80:	0b213023          	sd	s2,160(sp)
    80001a84:	09513423          	sd	s5,136(sp)
    80001a88:	00020a93          	mv	s5,tp
    80001a8c:	f01ff0ef          	jal	ra,8000198c <memcpy>
    80001a90:	04420613          	addi	a2,tp,68 # 44 <_tbss_end>
    80001a94:	40960633          	sub	a2,a2,s1
    80001a98:	00000593          	li	a1,0
    80001a9c:	008a8533          	add	a0,s5,s0
    80001aa0:	f49ff0ef          	jal	ra,800019e8 <memset>
    80001aa4:	00098513          	mv	a0,s3
    80001aa8:	000a0593          	mv	a1,s4
    80001aac:	dc1ff0ef          	jal	ra,8000186c <thread_entry>
    80001ab0:	00000593          	li	a1,0
    80001ab4:	00000513          	li	a0,0
    80001ab8:	1ac000ef          	jal	ra,80001c64 <main>
    80001abc:	e2018413          	addi	s0,gp,-480 # 80003298 <counters>
    80001ac0:	00043683          	ld	a3,0(s0)
    80001ac4:	03f10913          	addi	s2,sp,63
    80001ac8:	fc097913          	andi	s2,s2,-64
    80001acc:	00050993          	mv	s3,a0
    80001ad0:	04069063          	bnez	a3,80001b10 <_init+0xc8>
    80001ad4:	00843683          	ld	a3,8(s0)
    80001ad8:	00069663          	bnez	a3,80001ae4 <_init+0x9c>
    80001adc:	00098513          	mv	a0,s3
    80001ae0:	cc9ff0ef          	jal	ra,800017a8 <tohost_exit>
    80001ae4:	00090493          	mv	s1,s2
    80001ae8:	01843603          	ld	a2,24(s0)
    80001aec:	00048513          	mv	a0,s1
    80001af0:	00001597          	auipc	a1,0x1
    80001af4:	84858593          	addi	a1,a1,-1976 # 80002338 <input_cond+0x4b8>
    80001af8:	e29ff0ef          	jal	ra,80001920 <sprintf>
    80001afc:	00a484b3          	add	s1,s1,a0
    80001b00:	fc990ee3          	beq	s2,s1,80001adc <_init+0x94>
    80001b04:	00090513          	mv	a0,s2
    80001b08:	ce5ff0ef          	jal	ra,800017ec <printstr>
    80001b0c:	fd1ff06f          	j	80001adc <_init+0x94>
    80001b10:	01043603          	ld	a2,16(s0)
    80001b14:	00001597          	auipc	a1,0x1
    80001b18:	82458593          	addi	a1,a1,-2012 # 80002338 <input_cond+0x4b8>
    80001b1c:	00090513          	mv	a0,s2
    80001b20:	e01ff0ef          	jal	ra,80001920 <sprintf>
    80001b24:	00843683          	ld	a3,8(s0)
    80001b28:	00a904b3          	add	s1,s2,a0
    80001b2c:	fc068ae3          	beqz	a3,80001b00 <_init+0xb8>
    80001b30:	fb9ff06f          	j	80001ae8 <_init+0xa0>

0000000080001b34 <strlen>:
    80001b34:	00054783          	lbu	a5,0(a0)
    80001b38:	00050713          	mv	a4,a0
    80001b3c:	00078c63          	beqz	a5,80001b54 <strlen+0x20>
    80001b40:	00150513          	addi	a0,a0,1
    80001b44:	00054783          	lbu	a5,0(a0)
    80001b48:	fe079ce3          	bnez	a5,80001b40 <strlen+0xc>
    80001b4c:	40e50533          	sub	a0,a0,a4
    80001b50:	00008067          	ret
    80001b54:	00000513          	li	a0,0
    80001b58:	00008067          	ret

0000000080001b5c <strnlen>:
    80001b5c:	00050713          	mv	a4,a0
    80001b60:	02058663          	beqz	a1,80001b8c <strnlen+0x30>
    80001b64:	00054783          	lbu	a5,0(a0)
    80001b68:	02078263          	beqz	a5,80001b8c <strnlen+0x30>
    80001b6c:	00b505b3          	add	a1,a0,a1
    80001b70:	00c0006f          	j	80001b7c <strnlen+0x20>
    80001b74:	00054783          	lbu	a5,0(a0)
    80001b78:	00078663          	beqz	a5,80001b84 <strnlen+0x28>
    80001b7c:	00150513          	addi	a0,a0,1
    80001b80:	feb51ae3          	bne	a0,a1,80001b74 <strnlen+0x18>
    80001b84:	40e50533          	sub	a0,a0,a4
    80001b88:	00008067          	ret
    80001b8c:	00000513          	li	a0,0
    80001b90:	00008067          	ret

0000000080001b94 <strcmp>:
    80001b94:	00150513          	addi	a0,a0,1
    80001b98:	fff54783          	lbu	a5,-1(a0)
    80001b9c:	00158593          	addi	a1,a1,1
    80001ba0:	fff5c703          	lbu	a4,-1(a1)
    80001ba4:	00078a63          	beqz	a5,80001bb8 <strcmp+0x24>
    80001ba8:	fee786e3          	beq	a5,a4,80001b94 <strcmp>
    80001bac:	0007851b          	sext.w	a0,a5
    80001bb0:	40e5053b          	subw	a0,a0,a4
    80001bb4:	00008067          	ret
    80001bb8:	00000513          	li	a0,0
    80001bbc:	ff5ff06f          	j	80001bb0 <strcmp+0x1c>

0000000080001bc0 <strcpy>:
    80001bc0:	00050793          	mv	a5,a0
    80001bc4:	00158593          	addi	a1,a1,1
    80001bc8:	fff5c703          	lbu	a4,-1(a1)
    80001bcc:	00178793          	addi	a5,a5,1
    80001bd0:	fee78fa3          	sb	a4,-1(a5)
    80001bd4:	fe0718e3          	bnez	a4,80001bc4 <strcpy+0x4>
    80001bd8:	00008067          	ret

0000000080001bdc <atol>:
    80001bdc:	00054783          	lbu	a5,0(a0)
    80001be0:	02000713          	li	a4,32
    80001be4:	00e79863          	bne	a5,a4,80001bf4 <atol+0x18>
    80001be8:	00150513          	addi	a0,a0,1
    80001bec:	00054783          	lbu	a5,0(a0)
    80001bf0:	fee78ce3          	beq	a5,a4,80001be8 <atol+0xc>
    80001bf4:	fd57871b          	addiw	a4,a5,-43
    80001bf8:	0fd77713          	andi	a4,a4,253
    80001bfc:	04070263          	beqz	a4,80001c40 <atol+0x64>
    80001c00:	00054683          	lbu	a3,0(a0)
    80001c04:	00050793          	mv	a5,a0
    80001c08:	00000613          	li	a2,0
    80001c0c:	04068863          	beqz	a3,80001c5c <atol+0x80>
    80001c10:	00000513          	li	a0,0
    80001c14:	00178793          	addi	a5,a5,1
    80001c18:	fd06859b          	addiw	a1,a3,-48
    80001c1c:	00251713          	slli	a4,a0,0x2
    80001c20:	0007c683          	lbu	a3,0(a5)
    80001c24:	00a70533          	add	a0,a4,a0
    80001c28:	00151513          	slli	a0,a0,0x1
    80001c2c:	00a58533          	add	a0,a1,a0
    80001c30:	fe0692e3          	bnez	a3,80001c14 <atol+0x38>
    80001c34:	00060463          	beqz	a2,80001c3c <atol+0x60>
    80001c38:	40a00533          	neg	a0,a0
    80001c3c:	00008067          	ret
    80001c40:	00154683          	lbu	a3,1(a0)
    80001c44:	fd378793          	addi	a5,a5,-45
    80001c48:	0017b613          	seqz	a2,a5
    80001c4c:	00150793          	addi	a5,a0,1
    80001c50:	fc0690e3          	bnez	a3,80001c10 <atol+0x34>
    80001c54:	00000513          	li	a0,0
    80001c58:	fddff06f          	j	80001c34 <atol+0x58>
    80001c5c:	00000513          	li	a0,0
    80001c60:	00008067          	ret

Disassembly of section .text.startup:

0000000080001c64 <main>:
    80001c64:	f9010113          	addi	sp,sp,-112
    80001c68:	00001697          	auipc	a3,0x1
    80001c6c:	01068693          	addi	a3,a3,16 # 80002c78 <results_data.3086>
    80001c70:	00000617          	auipc	a2,0x0
    80001c74:	6d860613          	addi	a2,a2,1752 # 80002348 <input_b>
    80001c78:	00001597          	auipc	a1,0x1
    80001c7c:	9e058593          	addi	a1,a1,-1568 # 80002658 <input_a>
    80001c80:	00e00513          	li	a0,14
    80001c84:	06813023          	sd	s0,96(sp)
    80001c88:	04913c23          	sd	s1,88(sp)
    80001c8c:	05213823          	sd	s2,80(sp)
    80001c90:	05313423          	sd	s3,72(sp)
    80001c94:	05413023          	sd	s4,64(sp)
    80001c98:	03513c23          	sd	s5,56(sp)
    80001c9c:	03613823          	sd	s6,48(sp)
    80001ca0:	03813023          	sd	s8,32(sp)
    80001ca4:	01913c23          	sd	s9,24(sp)
    80001ca8:	01a13823          	sd	s10,16(sp)
    80001cac:	01b13423          	sd	s11,8(sp)
    80001cb0:	06113423          	sd	ra,104(sp)
    80001cb4:	03713423          	sd	s7,40(sp)
    80001cb8:	b90ff0ef          	jal	ra,80001048 <matrix_multiply>
    80001cbc:	00400793          	li	a5,4
    80001cc0:	00200413          	li	s0,2
    80001cc4:	00000d97          	auipc	s11,0x0
    80001cc8:	1c0d8d93          	addi	s11,s11,448 # 80001e84 <input_cond+0x4>
    80001ccc:	00000497          	auipc	s1,0x0
    80001cd0:	4c448493          	addi	s1,s1,1220 # 80002190 <input_cond+0x310>
    80001cd4:	00001c17          	auipc	s8,0x1
    80001cd8:	fa4c0c13          	addi	s8,s8,-92 # 80002c78 <results_data.3086>
    80001cdc:	e2018c93          	addi	s9,gp,-480 # 80003298 <counters>
    80001ce0:	00500913          	li	s2,5
    80001ce4:	00700a13          	li	s4,7
    80001ce8:	00a00b13          	li	s6,10
    80001cec:	b4818d13          	addi	s10,gp,-1208 # 80002fc0 <results_temp.3087+0x38>
    80001cf0:	b1018993          	addi	s3,gp,-1264 # 80002f88 <results_temp.3087>
    80001cf4:	00000a97          	auipc	s5,0x0
    80001cf8:	654a8a93          	addi	s5,s5,1620 # 80002348 <input_b>
    80001cfc:	04f47e63          	bleu	a5,s0,80001d58 <main+0xf4>
    80001d00:	06f97c63          	bleu	a5,s2,80001d78 <main+0x114>
    80001d04:	0afa7a63          	bleu	a5,s4,80001db8 <main+0x154>
    80001d08:	0cfb7663          	bleu	a5,s6,80001dd4 <main+0x170>
    80001d0c:	00001b97          	auipc	s7,0x1
    80001d10:	f6cb8b93          	addi	s7,s7,-148 # 80002c78 <results_data.3086>
    80001d14:	b1018793          	addi	a5,gp,-1264 # 80002f88 <results_temp.3087>
    80001d18:	000b8c13          	mv	s8,s7
    80001d1c:	000b8713          	mv	a4,s7
    80001d20:	0007a683          	lw	a3,0(a5)
    80001d24:	00470713          	addi	a4,a4,4
    80001d28:	00478793          	addi	a5,a5,4
    80001d2c:	fed72e23          	sw	a3,-4(a4)
    80001d30:	fefc98e3          	bne	s9,a5,80001d20 <main+0xbc>
    80001d34:	00001617          	auipc	a2,0x1
    80001d38:	f4460613          	addi	a2,a2,-188 # 80002c78 <results_data.3086>
    80001d3c:	00e00593          	li	a1,14
    80001d40:	0c400513          	li	a0,196
    80001d44:	bd8ff0ef          	jal	ra,8000111c <matrix_print>
    80001d48:	0c9d8a63          	beq	s11,s1,80001e1c <main+0x1b8>
    80001d4c:	000da783          	lw	a5,0(s11)
    80001d50:	004d8d93          	addi	s11,s11,4
    80001d54:	faf466e3          	bltu	s0,a5,80001d00 <main+0x9c>
    80001d58:	00098693          	mv	a3,s3
    80001d5c:	00001617          	auipc	a2,0x1
    80001d60:	8fc60613          	addi	a2,a2,-1796 # 80002658 <input_a>
    80001d64:	00001597          	auipc	a1,0x1
    80001d68:	f1458593          	addi	a1,a1,-236 # 80002c78 <results_data.3086>
    80001d6c:	00e00513          	li	a0,14
    80001d70:	ad8ff0ef          	jal	ra,80001048 <matrix_multiply>
    80001d74:	f99ff06f          	j	80001d0c <main+0xa8>
    80001d78:	b1018513          	addi	a0,gp,-1264 # 80002f88 <results_temp.3087>
    80001d7c:	418a8c33          	sub	s8,s5,s8
    80001d80:	cf050793          	addi	a5,a0,-784
    80001d84:	00ac0633          	add	a2,s8,a0
    80001d88:	00050693          	mv	a3,a0
    80001d8c:	0007a703          	lw	a4,0(a5)
    80001d90:	00062583          	lw	a1,0(a2)
    80001d94:	03878793          	addi	a5,a5,56
    80001d98:	03860613          	addi	a2,a2,56
    80001d9c:	00b7073b          	addw	a4,a4,a1
    80001da0:	00e6a023          	sw	a4,0(a3)
    80001da4:	03868693          	addi	a3,a3,56
    80001da8:	fea792e3          	bne	a5,a0,80001d8c <main+0x128>
    80001dac:	00450513          	addi	a0,a0,4
    80001db0:	fcad18e3          	bne	s10,a0,80001d80 <main+0x11c>
    80001db4:	f59ff06f          	j	80001d0c <main+0xa8>
    80001db8:	00098693          	mv	a3,s3
    80001dbc:	000a8613          	mv	a2,s5
    80001dc0:	00001597          	auipc	a1,0x1
    80001dc4:	eb858593          	addi	a1,a1,-328 # 80002c78 <results_data.3086>
    80001dc8:	00e00513          	li	a0,14
    80001dcc:	a7cff0ef          	jal	ra,80001048 <matrix_multiply>
    80001dd0:	f3dff06f          	j	80001d0c <main+0xa8>
    80001dd4:	00000797          	auipc	a5,0x0
    80001dd8:	26478793          	addi	a5,a5,612 # 80002038 <input_cond+0x1b8>
    80001ddc:	b1018513          	addi	a0,gp,-1264 # 80002f88 <results_temp.3087>
    80001de0:	41878c33          	sub	s8,a5,s8
    80001de4:	cf050793          	addi	a5,a0,-784
    80001de8:	00ac0633          	add	a2,s8,a0
    80001dec:	00050693          	mv	a3,a0
    80001df0:	0007a703          	lw	a4,0(a5)
    80001df4:	00062583          	lw	a1,0(a2)
    80001df8:	03878793          	addi	a5,a5,56
    80001dfc:	03860613          	addi	a2,a2,56
    80001e00:	00b7073b          	addw	a4,a4,a1
    80001e04:	00e6a023          	sw	a4,0(a3)
    80001e08:	03868693          	addi	a3,a3,56
    80001e0c:	fea792e3          	bne	a5,a0,80001df0 <main+0x18c>
    80001e10:	00450513          	addi	a0,a0,4
    80001e14:	fda518e3          	bne	a0,s10,80001de4 <main+0x180>
    80001e18:	ef5ff06f          	j	80001d0c <main+0xa8>
    80001e1c:	00001797          	auipc	a5,0x1
    80001e20:	b4c78793          	addi	a5,a5,-1204 # 80002968 <input_verify>
    80001e24:	00001717          	auipc	a4,0x1
    80001e28:	e5470713          	addi	a4,a4,-428 # 80002c78 <results_data.3086>
    80001e2c:	0100006f          	j	80001e3c <main+0x1d8>
    80001e30:	00478793          	addi	a5,a5,4
    80001e34:	004b8b93          	addi	s7,s7,4
    80001e38:	00f70c63          	beq	a4,a5,80001e50 <main+0x1ec>
    80001e3c:	0007a603          	lw	a2,0(a5)
    80001e40:	000ba683          	lw	a3,0(s7)
    80001e44:	fed606e3          	beq	a2,a3,80001e30 <main+0x1cc>
    80001e48:	00100513          	li	a0,1
    80001e4c:	985ff0ef          	jal	ra,800017d0 <exit>
    80001e50:	00000513          	li	a0,0
    80001e54:	ff9ff06f          	j	80001e4c <main+0x1e8>
    80001e58:	ff010113          	addi	sp,sp,-16
    80001e5c:	00000517          	auipc	a0,0x0
    80001e60:	4c450513          	addi	a0,a0,1220 # 80002320 <input_cond+0x4a0>
    80001e64:	00113423          	sd	ra,8(sp)
    80001e68:	985ff0ef          	jal	ra,800017ec <printstr>
    80001e6c:	00813083          	ld	ra,8(sp)
    80001e70:	fff00513          	li	a0,-1
    80001e74:	01010113          	addi	sp,sp,16
    80001e78:	00008067          	ret
