
simple.riscv:     file format elf64-littleriscv


Disassembly of section .text:

0000000080001048 <simple>:
    80001048:	00001737          	lui	a4,0x1
    8000104c:	fa070713          	addi	a4,a4,-96 # fa0 <_tbss_end+0xf5c>
    80001050:	00e50733          	add	a4,a0,a4
    80001054:	00052783          	lw	a5,0(a0)
    80001058:	00458593          	addi	a1,a1,4
    8000105c:	00450513          	addi	a0,a0,4
    80001060:	02c787bb          	mulw	a5,a5,a2
    80001064:	0017879b          	addiw	a5,a5,1
    80001068:	fef5ae23          	sw	a5,-4(a1)
    8000106c:	fee514e3          	bne	a0,a4,80001054 <simple+0xc>
    80001070:	00008067          	ret

0000000080001074 <vprintfmt>:
    80001074:	ea010113          	addi	sp,sp,-352
    80001078:	14813823          	sd	s0,336(sp)
    8000107c:	14913423          	sd	s1,328(sp)
    80001080:	15213023          	sd	s2,320(sp)
    80001084:	13413823          	sd	s4,304(sp)
    80001088:	13513423          	sd	s5,296(sp)
    8000108c:	13613023          	sd	s6,288(sp)
    80001090:	14113c23          	sd	ra,344(sp)
    80001094:	13313c23          	sd	s3,312(sp)
    80001098:	11713c23          	sd	s7,280(sp)
    8000109c:	11813823          	sd	s8,272(sp)
    800010a0:	11913423          	sd	s9,264(sp)
    800010a4:	00050913          	mv	s2,a0
    800010a8:	00058493          	mv	s1,a1
    800010ac:	00060413          	mv	s0,a2
    800010b0:	00068b13          	mv	s6,a3
    800010b4:	02500a13          	li	s4,37
    800010b8:	00001a97          	auipc	s5,0x1
    800010bc:	afca8a93          	addi	s5,s5,-1284 # 80001bb4 <main+0xc8>
    800010c0:	0140006f          	j	800010d4 <vprintfmt+0x60>
    800010c4:	06050063          	beqz	a0,80001124 <vprintfmt+0xb0>
    800010c8:	00048593          	mv	a1,s1
    800010cc:	00140413          	addi	s0,s0,1
    800010d0:	000900e7          	jalr	s2
    800010d4:	00044503          	lbu	a0,0(s0)
    800010d8:	ff4516e3          	bne	a0,s4,800010c4 <vprintfmt+0x50>
    800010dc:	00144683          	lbu	a3,1(s0)
    800010e0:	00140c93          	addi	s9,s0,1
    800010e4:	000c8713          	mv	a4,s9
    800010e8:	02000b93          	li	s7,32
    800010ec:	fff00993          	li	s3,-1
    800010f0:	fff00c13          	li	s8,-1
    800010f4:	00000593          	li	a1,0
    800010f8:	05500613          	li	a2,85
    800010fc:	00900513          	li	a0,9
    80001100:	fdd6879b          	addiw	a5,a3,-35
    80001104:	0ff7f793          	andi	a5,a5,255
    80001108:	00170413          	addi	s0,a4,1
    8000110c:	2af66863          	bltu	a2,a5,800013bc <vprintfmt+0x348>
    80001110:	00279793          	slli	a5,a5,0x2
    80001114:	015787b3          	add	a5,a5,s5
    80001118:	0007a783          	lw	a5,0(a5)
    8000111c:	015787b3          	add	a5,a5,s5
    80001120:	00078067          	jr	a5
    80001124:	15813083          	ld	ra,344(sp)
    80001128:	15013403          	ld	s0,336(sp)
    8000112c:	14813483          	ld	s1,328(sp)
    80001130:	14013903          	ld	s2,320(sp)
    80001134:	13813983          	ld	s3,312(sp)
    80001138:	13013a03          	ld	s4,304(sp)
    8000113c:	12813a83          	ld	s5,296(sp)
    80001140:	12013b03          	ld	s6,288(sp)
    80001144:	11813b83          	ld	s7,280(sp)
    80001148:	11013c03          	ld	s8,272(sp)
    8000114c:	10813c83          	ld	s9,264(sp)
    80001150:	16010113          	addi	sp,sp,352
    80001154:	00008067          	ret
    80001158:	00800713          	li	a4,8
    8000115c:	00100793          	li	a5,1
    80001160:	008b0693          	addi	a3,s6,8
    80001164:	12b7d863          	ble	a1,a5,80001294 <vprintfmt+0x220>
    80001168:	000b3783          	ld	a5,0(s6)
    8000116c:	00068b13          	mv	s6,a3
    80001170:	02e7f6b3          	remu	a3,a5,a4
    80001174:	000b8b9b          	sext.w	s7,s7
    80001178:	00410613          	addi	a2,sp,4
    8000117c:	00100993          	li	s3,1
    80001180:	00d12023          	sw	a3,0(sp)
    80001184:	00e7f663          	bleu	a4,a5,80001190 <vprintfmt+0x11c>
    80001188:	2480006f          	j	800013d0 <vprintfmt+0x35c>
    8000118c:	000c8993          	mv	s3,s9
    80001190:	02e7d7b3          	divu	a5,a5,a4
    80001194:	00460613          	addi	a2,a2,4
    80001198:	00198c9b          	addiw	s9,s3,1
    8000119c:	02e7f6b3          	remu	a3,a5,a4
    800011a0:	fed62e23          	sw	a3,-4(a2)
    800011a4:	fee7f4e3          	bleu	a4,a5,8000118c <vprintfmt+0x118>
    800011a8:	018cde63          	ble	s8,s9,800011c4 <vprintfmt+0x150>
    800011ac:	000c0c1b          	sext.w	s8,s8
    800011b0:	fffc0c1b          	addiw	s8,s8,-1
    800011b4:	00048593          	mv	a1,s1
    800011b8:	000b8513          	mv	a0,s7
    800011bc:	000900e7          	jalr	s2
    800011c0:	ff8cc8e3          	blt	s9,s8,800011b0 <vprintfmt+0x13c>
    800011c4:	00299793          	slli	a5,s3,0x2
    800011c8:	10010713          	addi	a4,sp,256
    800011cc:	00f707b3          	add	a5,a4,a5
    800011d0:	f007a683          	lw	a3,-256(a5)
    800011d4:	fff98b9b          	addiw	s7,s3,-1
    800011d8:	002b9b93          	slli	s7,s7,0x2
    800011dc:	01710bb3          	add	s7,sp,s7
    800011e0:	00900c13          	li	s8,9
    800011e4:	0100006f          	j	800011f4 <vprintfmt+0x180>
    800011e8:	000ba683          	lw	a3,0(s7)
    800011ec:	fff98993          	addi	s3,s3,-1
    800011f0:	ffcb8b93          	addi	s7,s7,-4
    800011f4:	03000513          	li	a0,48
    800011f8:	00dc7463          	bleu	a3,s8,80001200 <vprintfmt+0x18c>
    800011fc:	05700513          	li	a0,87
    80001200:	00048593          	mv	a1,s1
    80001204:	00d5053b          	addw	a0,a0,a3
    80001208:	000900e7          	jalr	s2
    8000120c:	0009879b          	sext.w	a5,s3
    80001210:	fcf04ce3          	bgtz	a5,800011e8 <vprintfmt+0x174>
    80001214:	ec1ff06f          	j	800010d4 <vprintfmt+0x60>
    80001218:	03000513          	li	a0,48
    8000121c:	00048593          	mv	a1,s1
    80001220:	000900e7          	jalr	s2
    80001224:	00048593          	mv	a1,s1
    80001228:	07800513          	li	a0,120
    8000122c:	000900e7          	jalr	s2
    80001230:	008b0693          	addi	a3,s6,8
    80001234:	01000713          	li	a4,16
    80001238:	f31ff06f          	j	80001168 <vprintfmt+0xf4>
    8000123c:	000b3c83          	ld	s9,0(s6)
    80001240:	008b0b13          	addi	s6,s6,8
    80001244:	200c8c63          	beqz	s9,8000145c <vprintfmt+0x3e8>
    80001248:	1b805463          	blez	s8,800013f0 <vprintfmt+0x37c>
    8000124c:	02d00793          	li	a5,45
    80001250:	1efb8e63          	beq	s7,a5,8000144c <vprintfmt+0x3d8>
    80001254:	000c059b          	sext.w	a1,s8
    80001258:	20098e63          	beqz	s3,80001474 <vprintfmt+0x400>
    8000125c:	000cc783          	lbu	a5,0(s9)
    80001260:	20078a63          	beqz	a5,80001474 <vprintfmt+0x400>
    80001264:	001c8793          	addi	a5,s9,1
    80001268:	013c8633          	add	a2,s9,s3
    8000126c:	24f60463          	beq	a2,a5,800014b4 <vprintfmt+0x440>
    80001270:	00178713          	addi	a4,a5,1
    80001274:	fff74683          	lbu	a3,-1(a4)
    80001278:	16068663          	beqz	a3,800013e4 <vprintfmt+0x370>
    8000127c:	00070793          	mv	a5,a4
    80001280:	fedff06f          	j	8000126c <vprintfmt+0x1f8>
    80001284:	00100793          	li	a5,1
    80001288:	00a00713          	li	a4,10
    8000128c:	008b0693          	addi	a3,s6,8
    80001290:	ecb7cce3          	blt	a5,a1,80001168 <vprintfmt+0xf4>
    80001294:	ec059ae3          	bnez	a1,80001168 <vprintfmt+0xf4>
    80001298:	000b6783          	lwu	a5,0(s6)
    8000129c:	00068b13          	mv	s6,a3
    800012a0:	ed1ff06f          	j	80001170 <vprintfmt+0xfc>
    800012a4:	00174683          	lbu	a3,1(a4)
    800012a8:	00040713          	mv	a4,s0
    800012ac:	e55ff06f          	j	80001100 <vprintfmt+0x8c>
    800012b0:	00048593          	mv	a1,s1
    800012b4:	02500513          	li	a0,37
    800012b8:	000900e7          	jalr	s2
    800012bc:	e19ff06f          	j	800010d4 <vprintfmt+0x60>
    800012c0:	01000713          	li	a4,16
    800012c4:	e99ff06f          	j	8000115c <vprintfmt+0xe8>
    800012c8:	000b2983          	lw	s3,0(s6)
    800012cc:	00174683          	lbu	a3,1(a4)
    800012d0:	008b0b13          	addi	s6,s6,8
    800012d4:	00040713          	mv	a4,s0
    800012d8:	e20c54e3          	bgez	s8,80001100 <vprintfmt+0x8c>
    800012dc:	00098c13          	mv	s8,s3
    800012e0:	fff00993          	li	s3,-1
    800012e4:	e1dff06f          	j	80001100 <vprintfmt+0x8c>
    800012e8:	00174683          	lbu	a3,1(a4)
    800012ec:	02d00b93          	li	s7,45
    800012f0:	00040713          	mv	a4,s0
    800012f4:	e0dff06f          	j	80001100 <vprintfmt+0x8c>
    800012f8:	fffc4793          	not	a5,s8
    800012fc:	43f7d793          	srai	a5,a5,0x3f
    80001300:	00fc7c33          	and	s8,s8,a5
    80001304:	00174683          	lbu	a3,1(a4)
    80001308:	000c0c1b          	sext.w	s8,s8
    8000130c:	00040713          	mv	a4,s0
    80001310:	df1ff06f          	j	80001100 <vprintfmt+0x8c>
    80001314:	00174683          	lbu	a3,1(a4)
    80001318:	03000b93          	li	s7,48
    8000131c:	00040713          	mv	a4,s0
    80001320:	de1ff06f          	j	80001100 <vprintfmt+0x8c>
    80001324:	fd06899b          	addiw	s3,a3,-48
    80001328:	00174683          	lbu	a3,1(a4)
    8000132c:	00040713          	mv	a4,s0
    80001330:	fd06879b          	addiw	a5,a3,-48
    80001334:	0006881b          	sext.w	a6,a3
    80001338:	faf560e3          	bltu	a0,a5,800012d8 <vprintfmt+0x264>
    8000133c:	00170713          	addi	a4,a4,1
    80001340:	0029979b          	slliw	a5,s3,0x2
    80001344:	00074683          	lbu	a3,0(a4)
    80001348:	013789bb          	addw	s3,a5,s3
    8000134c:	0019999b          	slliw	s3,s3,0x1
    80001350:	010989bb          	addw	s3,s3,a6
    80001354:	fd06879b          	addiw	a5,a3,-48
    80001358:	fd09899b          	addiw	s3,s3,-48
    8000135c:	0006881b          	sext.w	a6,a3
    80001360:	fcf57ee3          	bleu	a5,a0,8000133c <vprintfmt+0x2c8>
    80001364:	f75ff06f          	j	800012d8 <vprintfmt+0x264>
    80001368:	000b2503          	lw	a0,0(s6)
    8000136c:	00048593          	mv	a1,s1
    80001370:	008b0b13          	addi	s6,s6,8
    80001374:	000900e7          	jalr	s2
    80001378:	d5dff06f          	j	800010d4 <vprintfmt+0x60>
    8000137c:	00100793          	li	a5,1
    80001380:	008b0c93          	addi	s9,s6,8
    80001384:	0ab7de63          	ble	a1,a5,80001440 <vprintfmt+0x3cc>
    80001388:	000b3983          	ld	s3,0(s6)
    8000138c:	1009d263          	bgez	s3,80001490 <vprintfmt+0x41c>
    80001390:	00048593          	mv	a1,s1
    80001394:	02d00513          	li	a0,45
    80001398:	000900e7          	jalr	s2
    8000139c:	000c8b13          	mv	s6,s9
    800013a0:	413007b3          	neg	a5,s3
    800013a4:	00a00713          	li	a4,10
    800013a8:	dc9ff06f          	j	80001170 <vprintfmt+0xfc>
    800013ac:	00174683          	lbu	a3,1(a4)
    800013b0:	0015859b          	addiw	a1,a1,1
    800013b4:	00040713          	mv	a4,s0
    800013b8:	d49ff06f          	j	80001100 <vprintfmt+0x8c>
    800013bc:	00048593          	mv	a1,s1
    800013c0:	02500513          	li	a0,37
    800013c4:	000900e7          	jalr	s2
    800013c8:	000c8413          	mv	s0,s9
    800013cc:	d09ff06f          	j	800010d4 <vprintfmt+0x60>
    800013d0:	00100793          	li	a5,1
    800013d4:	00000993          	li	s3,0
    800013d8:	00100c93          	li	s9,1
    800013dc:	dd87c8e3          	blt	a5,s8,800011ac <vprintfmt+0x138>
    800013e0:	df5ff06f          	j	800011d4 <vprintfmt+0x160>
    800013e4:	41978c33          	sub	s8,a5,s9
    800013e8:	41858c3b          	subw	s8,a1,s8
    800013ec:	09804463          	bgtz	s8,80001474 <vprintfmt+0x400>
    800013f0:	000cc503          	lbu	a0,0(s9)
    800013f4:	ce0500e3          	beqz	a0,800010d4 <vprintfmt+0x60>
    800013f8:	fff00b93          	li	s7,-1
    800013fc:	0209dc63          	bgez	s3,80001434 <vprintfmt+0x3c0>
    80001400:	00048593          	mv	a1,s1
    80001404:	001c8c93          	addi	s9,s9,1
    80001408:	000900e7          	jalr	s2
    8000140c:	000cc503          	lbu	a0,0(s9)
    80001410:	fffc0c1b          	addiw	s8,s8,-1
    80001414:	fe0514e3          	bnez	a0,800013fc <vprintfmt+0x388>
    80001418:	cb805ee3          	blez	s8,800010d4 <vprintfmt+0x60>
    8000141c:	fffc0c1b          	addiw	s8,s8,-1
    80001420:	00048593          	mv	a1,s1
    80001424:	02000513          	li	a0,32
    80001428:	000900e7          	jalr	s2
    8000142c:	fe0c18e3          	bnez	s8,8000141c <vprintfmt+0x3a8>
    80001430:	ca5ff06f          	j	800010d4 <vprintfmt+0x60>
    80001434:	fff9899b          	addiw	s3,s3,-1
    80001438:	fd7994e3          	bne	s3,s7,80001400 <vprintfmt+0x38c>
    8000143c:	fddff06f          	j	80001418 <vprintfmt+0x3a4>
    80001440:	f40594e3          	bnez	a1,80001388 <vprintfmt+0x314>
    80001444:	000b2983          	lw	s3,0(s6)
    80001448:	f45ff06f          	j	8000138c <vprintfmt+0x318>
    8000144c:	000cc503          	lbu	a0,0(s9)
    80001450:	fc0506e3          	beqz	a0,8000141c <vprintfmt+0x3a8>
    80001454:	fff00b93          	li	s7,-1
    80001458:	fa5ff06f          	j	800013fc <vprintfmt+0x388>
    8000145c:	05805263          	blez	s8,800014a0 <vprintfmt+0x42c>
    80001460:	02d00793          	li	a5,45
    80001464:	02fb8e63          	beq	s7,a5,800014a0 <vprintfmt+0x42c>
    80001468:	00001c97          	auipc	s9,0x1
    8000146c:	8a8c8c93          	addi	s9,s9,-1880 # 80001d10 <main+0x224>
    80001470:	de5ff06f          	j	80001254 <vprintfmt+0x1e0>
    80001474:	000b8b9b          	sext.w	s7,s7
    80001478:	fffc0c1b          	addiw	s8,s8,-1
    8000147c:	00048593          	mv	a1,s1
    80001480:	000b8513          	mv	a0,s7
    80001484:	000900e7          	jalr	s2
    80001488:	fe0c18e3          	bnez	s8,80001478 <vprintfmt+0x404>
    8000148c:	f65ff06f          	j	800013f0 <vprintfmt+0x37c>
    80001490:	00098793          	mv	a5,s3
    80001494:	000c8b13          	mv	s6,s9
    80001498:	00a00713          	li	a4,10
    8000149c:	cd5ff06f          	j	80001170 <vprintfmt+0xfc>
    800014a0:	00001c97          	auipc	s9,0x1
    800014a4:	870c8c93          	addi	s9,s9,-1936 # 80001d10 <main+0x224>
    800014a8:	02800513          	li	a0,40
    800014ac:	fff00b93          	li	s7,-1
    800014b0:	f4dff06f          	j	800013fc <vprintfmt+0x388>
    800014b4:	41960c33          	sub	s8,a2,s9
    800014b8:	41858c3b          	subw	s8,a1,s8
    800014bc:	fb804ce3          	bgtz	s8,80001474 <vprintfmt+0x400>
    800014c0:	f31ff06f          	j	800013f0 <vprintfmt+0x37c>

00000000800014c4 <sprintf_putch.2964>:
    800014c4:	0005b783          	ld	a5,0(a1)
    800014c8:	00a78023          	sb	a0,0(a5)
    800014cc:	0005b783          	ld	a5,0(a1)
    800014d0:	00178793          	addi	a5,a5,1
    800014d4:	00f5b023          	sd	a5,0(a1)
    800014d8:	00008067          	ret

00000000800014dc <putchar>:
    800014dc:	04022803          	lw	a6,64(tp) # 40 <buflen.2850>
    800014e0:	00020793          	mv	a5,tp
    800014e4:	010787b3          	add	a5,a5,a6
    800014e8:	f8010113          	addi	sp,sp,-128
    800014ec:	0018069b          	addiw	a3,a6,1
    800014f0:	04d22023          	sw	a3,64(tp) # 40 <buflen.2850>
    800014f4:	00a78023          	sb	a0,0(a5)
    800014f8:	03f10713          	addi	a4,sp,63
    800014fc:	00a00793          	li	a5,10
    80001500:	fc077713          	andi	a4,a4,-64
    80001504:	00f50c63          	beq	a0,a5,8000151c <putchar+0x40>
    80001508:	04000793          	li	a5,64
    8000150c:	00f68863          	beq	a3,a5,8000151c <putchar+0x40>
    80001510:	00000513          	li	a0,0
    80001514:	08010113          	addi	sp,sp,128
    80001518:	00008067          	ret
    8000151c:	04000793          	li	a5,64
    80001520:	00f73023          	sd	a5,0(a4)
    80001524:	00100793          	li	a5,1
    80001528:	00f73423          	sd	a5,8(a4)
    8000152c:	00020613          	mv	a2,tp
    80001530:	00c73823          	sd	a2,16(a4)
    80001534:	00d73c23          	sd	a3,24(a4)
    80001538:	0ff0000f          	fence
    8000153c:	00000797          	auipc	a5,0x0
    80001540:	ace7b223          	sd	a4,-1340(a5) # 80001000 <tohost>
    80001544:	00000697          	auipc	a3,0x0
    80001548:	afc68693          	addi	a3,a3,-1284 # 80001040 <fromhost>
    8000154c:	0006b783          	ld	a5,0(a3)
    80001550:	fe078ee3          	beqz	a5,8000154c <putchar+0x70>
    80001554:	00000797          	auipc	a5,0x0
    80001558:	ae07b623          	sd	zero,-1300(a5) # 80001040 <fromhost>
    8000155c:	0ff0000f          	fence
    80001560:	04022023          	sw	zero,64(tp) # 40 <buflen.2850>
    80001564:	00073783          	ld	a5,0(a4)
    80001568:	00000513          	li	a0,0
    8000156c:	08010113          	addi	sp,sp,128
    80001570:	00008067          	ret

0000000080001574 <setStats>:
    80001574:	00050c63          	beqz	a0,8000158c <setStats+0x18>
    80001578:	40100793          	li	a5,1025
    8000157c:	32379073          	csrw	mhpmevent3,a5
    80001580:	000027b7          	lui	a5,0x2
    80001584:	0017879b          	addiw	a5,a5,1
    80001588:	32479073          	csrw	mhpmevent4,a5
    8000158c:	b00027f3          	csrr	a5,mcycle
    80001590:	00000717          	auipc	a4,0x0
    80001594:	7e870713          	addi	a4,a4,2024 # 80001d78 <counters>
    80001598:	00051e63          	bnez	a0,800015b4 <setStats+0x40>
    8000159c:	00073683          	ld	a3,0(a4)
    800015a0:	00000617          	auipc	a2,0x0
    800015a4:	77860613          	addi	a2,a2,1912 # 80001d18 <main+0x22c>
    800015a8:	00000597          	auipc	a1,0x0
    800015ac:	7ec5b823          	sd	a2,2032(a1) # 80001d98 <counter_names>
    800015b0:	40d787b3          	sub	a5,a5,a3
    800015b4:	00000697          	auipc	a3,0x0
    800015b8:	7cf6b223          	sd	a5,1988(a3) # 80001d78 <counters>
    800015bc:	b02027f3          	csrr	a5,minstret
    800015c0:	00051e63          	bnez	a0,800015dc <setStats+0x68>
    800015c4:	00873683          	ld	a3,8(a4)
    800015c8:	00000617          	auipc	a2,0x0
    800015cc:	75860613          	addi	a2,a2,1880 # 80001d20 <main+0x234>
    800015d0:	00000597          	auipc	a1,0x0
    800015d4:	7cc5b823          	sd	a2,2000(a1) # 80001da0 <counter_names+0x8>
    800015d8:	40d787b3          	sub	a5,a5,a3
    800015dc:	00000697          	auipc	a3,0x0
    800015e0:	7af6b223          	sd	a5,1956(a3) # 80001d80 <counters+0x8>
    800015e4:	b03027f3          	csrr	a5,mhpmcounter3
    800015e8:	00051e63          	bnez	a0,80001604 <setStats+0x90>
    800015ec:	01073683          	ld	a3,16(a4)
    800015f0:	00000617          	auipc	a2,0x0
    800015f4:	74060613          	addi	a2,a2,1856 # 80001d30 <main+0x244>
    800015f8:	00000597          	auipc	a1,0x0
    800015fc:	7ac5b823          	sd	a2,1968(a1) # 80001da8 <counter_names+0x10>
    80001600:	40d787b3          	sub	a5,a5,a3
    80001604:	00000697          	auipc	a3,0x0
    80001608:	78f6b223          	sd	a5,1924(a3) # 80001d88 <counters+0x10>
    8000160c:	b04027f3          	csrr	a5,mhpmcounter4
    80001610:	00051e63          	bnez	a0,8000162c <setStats+0xb8>
    80001614:	01873703          	ld	a4,24(a4)
    80001618:	00000697          	auipc	a3,0x0
    8000161c:	72868693          	addi	a3,a3,1832 # 80001d40 <main+0x254>
    80001620:	00000617          	auipc	a2,0x0
    80001624:	78d63823          	sd	a3,1936(a2) # 80001db0 <counter_names+0x18>
    80001628:	40e787b3          	sub	a5,a5,a4
    8000162c:	00000717          	auipc	a4,0x0
    80001630:	76f73223          	sd	a5,1892(a4) # 80001d90 <counters+0x18>
    80001634:	00008067          	ret

0000000080001638 <tohost_exit>:
    80001638:	00151793          	slli	a5,a0,0x1
    8000163c:	0017e793          	ori	a5,a5,1
    80001640:	00000717          	auipc	a4,0x0
    80001644:	9cf73023          	sd	a5,-1600(a4) # 80001000 <tohost>
    80001648:	0000006f          	j	80001648 <tohost_exit+0x10>

000000008000164c <handle_trap>:
    8000164c:	000017b7          	lui	a5,0x1
    80001650:	a7378793          	addi	a5,a5,-1421 # a73 <_tbss_end+0xa2f>
    80001654:	00000717          	auipc	a4,0x0
    80001658:	9af73623          	sd	a5,-1620(a4) # 80001000 <tohost>
    8000165c:	0000006f          	j	8000165c <handle_trap+0x10>

0000000080001660 <exit>:
    80001660:	ff010113          	addi	sp,sp,-16
    80001664:	00113423          	sd	ra,8(sp)
    80001668:	fd1ff0ef          	jal	ra,80001638 <tohost_exit>

000000008000166c <abort>:
    8000166c:	10d00793          	li	a5,269
    80001670:	00000717          	auipc	a4,0x0
    80001674:	98f73823          	sd	a5,-1648(a4) # 80001000 <tohost>
    80001678:	0000006f          	j	80001678 <abort+0xc>

000000008000167c <printstr>:
    8000167c:	00054783          	lbu	a5,0(a0)
    80001680:	f8010113          	addi	sp,sp,-128
    80001684:	03f10713          	addi	a4,sp,63
    80001688:	00050693          	mv	a3,a0
    8000168c:	fc077713          	andi	a4,a4,-64
    80001690:	06078263          	beqz	a5,800016f4 <printstr+0x78>
    80001694:	00050613          	mv	a2,a0
    80001698:	00150513          	addi	a0,a0,1
    8000169c:	00054783          	lbu	a5,0(a0)
    800016a0:	fe079ce3          	bnez	a5,80001698 <printstr+0x1c>
    800016a4:	40c50533          	sub	a0,a0,a2
    800016a8:	04000793          	li	a5,64
    800016ac:	00f73023          	sd	a5,0(a4)
    800016b0:	00100793          	li	a5,1
    800016b4:	00f73423          	sd	a5,8(a4)
    800016b8:	00d73823          	sd	a3,16(a4)
    800016bc:	00a73c23          	sd	a0,24(a4)
    800016c0:	0ff0000f          	fence
    800016c4:	00000797          	auipc	a5,0x0
    800016c8:	92e7be23          	sd	a4,-1732(a5) # 80001000 <tohost>
    800016cc:	00000697          	auipc	a3,0x0
    800016d0:	97468693          	addi	a3,a3,-1676 # 80001040 <fromhost>
    800016d4:	0006b783          	ld	a5,0(a3)
    800016d8:	fe078ee3          	beqz	a5,800016d4 <printstr+0x58>
    800016dc:	00000797          	auipc	a5,0x0
    800016e0:	9607b223          	sd	zero,-1692(a5) # 80001040 <fromhost>
    800016e4:	0ff0000f          	fence
    800016e8:	00073783          	ld	a5,0(a4)
    800016ec:	08010113          	addi	sp,sp,128
    800016f0:	00008067          	ret
    800016f4:	00000513          	li	a0,0
    800016f8:	fb1ff06f          	j	800016a8 <printstr+0x2c>

00000000800016fc <thread_entry>:
    800016fc:	00050463          	beqz	a0,80001704 <thread_entry+0x8>
    80001700:	0000006f          	j	80001700 <thread_entry+0x4>
    80001704:	00008067          	ret

0000000080001708 <printhex>:
    80001708:	fd010113          	addi	sp,sp,-48
    8000170c:	02113423          	sd	ra,40(sp)
    80001710:	01710713          	addi	a4,sp,23
    80001714:	00710813          	addi	a6,sp,7
    80001718:	00900593          	li	a1,9
    8000171c:	00f57793          	andi	a5,a0,15
    80001720:	03000613          	li	a2,48
    80001724:	0ff7f693          	andi	a3,a5,255
    80001728:	00f5f463          	bleu	a5,a1,80001730 <printhex+0x28>
    8000172c:	05700613          	li	a2,87
    80001730:	00c687bb          	addw	a5,a3,a2
    80001734:	00f70023          	sb	a5,0(a4)
    80001738:	fff70713          	addi	a4,a4,-1
    8000173c:	00455513          	srli	a0,a0,0x4
    80001740:	fce81ee3          	bne	a6,a4,8000171c <printhex+0x14>
    80001744:	00810513          	addi	a0,sp,8
    80001748:	00010c23          	sb	zero,24(sp)
    8000174c:	f31ff0ef          	jal	ra,8000167c <printstr>
    80001750:	02813083          	ld	ra,40(sp)
    80001754:	03010113          	addi	sp,sp,48
    80001758:	00008067          	ret

000000008000175c <printf>:
    8000175c:	fa010113          	addi	sp,sp,-96
    80001760:	02810313          	addi	t1,sp,40
    80001764:	02b13423          	sd	a1,40(sp)
    80001768:	02c13823          	sd	a2,48(sp)
    8000176c:	02d13c23          	sd	a3,56(sp)
    80001770:	00050613          	mv	a2,a0
    80001774:	00030693          	mv	a3,t1
    80001778:	00000517          	auipc	a0,0x0
    8000177c:	d6450513          	addi	a0,a0,-668 # 800014dc <putchar>
    80001780:	00000593          	li	a1,0
    80001784:	00113c23          	sd	ra,24(sp)
    80001788:	04e13023          	sd	a4,64(sp)
    8000178c:	04f13423          	sd	a5,72(sp)
    80001790:	05013823          	sd	a6,80(sp)
    80001794:	05113c23          	sd	a7,88(sp)
    80001798:	00613423          	sd	t1,8(sp)
    8000179c:	8d9ff0ef          	jal	ra,80001074 <vprintfmt>
    800017a0:	01813083          	ld	ra,24(sp)
    800017a4:	00000513          	li	a0,0
    800017a8:	06010113          	addi	sp,sp,96
    800017ac:	00008067          	ret

00000000800017b0 <sprintf>:
    800017b0:	fa010113          	addi	sp,sp,-96
    800017b4:	03010313          	addi	t1,sp,48
    800017b8:	02813023          	sd	s0,32(sp)
    800017bc:	00a13423          	sd	a0,8(sp)
    800017c0:	02c13823          	sd	a2,48(sp)
    800017c4:	02d13c23          	sd	a3,56(sp)
    800017c8:	00050413          	mv	s0,a0
    800017cc:	00058613          	mv	a2,a1
    800017d0:	00000517          	auipc	a0,0x0
    800017d4:	cf450513          	addi	a0,a0,-780 # 800014c4 <sprintf_putch.2964>
    800017d8:	00810593          	addi	a1,sp,8
    800017dc:	00030693          	mv	a3,t1
    800017e0:	02113423          	sd	ra,40(sp)
    800017e4:	04f13423          	sd	a5,72(sp)
    800017e8:	04e13023          	sd	a4,64(sp)
    800017ec:	05013823          	sd	a6,80(sp)
    800017f0:	05113c23          	sd	a7,88(sp)
    800017f4:	00613c23          	sd	t1,24(sp)
    800017f8:	87dff0ef          	jal	ra,80001074 <vprintfmt>
    800017fc:	00813783          	ld	a5,8(sp)
    80001800:	00078023          	sb	zero,0(a5)
    80001804:	00813503          	ld	a0,8(sp)
    80001808:	02813083          	ld	ra,40(sp)
    8000180c:	4085053b          	subw	a0,a0,s0
    80001810:	02013403          	ld	s0,32(sp)
    80001814:	06010113          	addi	sp,sp,96
    80001818:	00008067          	ret

000000008000181c <memcpy>:
    8000181c:	00c5e7b3          	or	a5,a1,a2
    80001820:	00f567b3          	or	a5,a0,a5
    80001824:	0077f793          	andi	a5,a5,7
    80001828:	00c506b3          	add	a3,a0,a2
    8000182c:	02078463          	beqz	a5,80001854 <memcpy+0x38>
    80001830:	00c58633          	add	a2,a1,a2
    80001834:	00050793          	mv	a5,a0
    80001838:	02d57e63          	bleu	a3,a0,80001874 <memcpy+0x58>
    8000183c:	00158593          	addi	a1,a1,1
    80001840:	fff5c703          	lbu	a4,-1(a1)
    80001844:	00178793          	addi	a5,a5,1
    80001848:	fee78fa3          	sb	a4,-1(a5)
    8000184c:	feb618e3          	bne	a2,a1,8000183c <memcpy+0x20>
    80001850:	00008067          	ret
    80001854:	fed57ee3          	bleu	a3,a0,80001850 <memcpy+0x34>
    80001858:	00050793          	mv	a5,a0
    8000185c:	00858593          	addi	a1,a1,8
    80001860:	ff85b703          	ld	a4,-8(a1)
    80001864:	00878793          	addi	a5,a5,8
    80001868:	fee7bc23          	sd	a4,-8(a5)
    8000186c:	fed7e8e3          	bltu	a5,a3,8000185c <memcpy+0x40>
    80001870:	00008067          	ret
    80001874:	00008067          	ret

0000000080001878 <memset>:
    80001878:	00c567b3          	or	a5,a0,a2
    8000187c:	0077f793          	andi	a5,a5,7
    80001880:	00c50633          	add	a2,a0,a2
    80001884:	0ff5f593          	andi	a1,a1,255
    80001888:	00078e63          	beqz	a5,800018a4 <memset+0x2c>
    8000188c:	00050793          	mv	a5,a0
    80001890:	04c57263          	bleu	a2,a0,800018d4 <memset+0x5c>
    80001894:	00178793          	addi	a5,a5,1
    80001898:	feb78fa3          	sb	a1,-1(a5)
    8000189c:	fef61ce3          	bne	a2,a5,80001894 <memset+0x1c>
    800018a0:	00008067          	ret
    800018a4:	00859793          	slli	a5,a1,0x8
    800018a8:	00f5e7b3          	or	a5,a1,a5
    800018ac:	01079593          	slli	a1,a5,0x10
    800018b0:	00b7e7b3          	or	a5,a5,a1
    800018b4:	02079713          	slli	a4,a5,0x20
    800018b8:	00e7e7b3          	or	a5,a5,a4
    800018bc:	fec572e3          	bleu	a2,a0,800018a0 <memset+0x28>
    800018c0:	00050713          	mv	a4,a0
    800018c4:	00870713          	addi	a4,a4,8
    800018c8:	fef73c23          	sd	a5,-8(a4)
    800018cc:	fec76ce3          	bltu	a4,a2,800018c4 <memset+0x4c>
    800018d0:	00008067          	ret
    800018d4:	00008067          	ret

00000000800018d8 <_init>:
    800018d8:	f0010113          	addi	sp,sp,-256
    800018dc:	0e813823          	sd	s0,240(sp)
    800018e0:	0e913423          	sd	s1,232(sp)
    800018e4:	00020493          	mv	s1,tp
    800018e8:	00020413          	mv	s0,tp
    800018ec:	40848433          	sub	s0,s1,s0
    800018f0:	00040613          	mv	a2,s0
    800018f4:	0f213023          	sd	s2,224(sp)
    800018f8:	0d413823          	sd	s4,208(sp)
    800018fc:	00050913          	mv	s2,a0
    80001900:	00058a13          	mv	s4,a1
    80001904:	00020513          	mv	a0,tp
    80001908:	84818593          	addi	a1,gp,-1976 # 80001dc0 <_end>
    8000190c:	0e113c23          	sd	ra,248(sp)
    80001910:	0d313c23          	sd	s3,216(sp)
    80001914:	0d513423          	sd	s5,200(sp)
    80001918:	0d613023          	sd	s6,192(sp)
    8000191c:	00020a93          	mv	s5,tp
    80001920:	efdff0ef          	jal	ra,8000181c <memcpy>
    80001924:	04420613          	addi	a2,tp,68 # 44 <_tbss_end>
    80001928:	40960633          	sub	a2,a2,s1
    8000192c:	008a8533          	add	a0,s5,s0
    80001930:	00000593          	li	a1,0
    80001934:	f45ff0ef          	jal	ra,80001878 <memset>
    80001938:	000a0593          	mv	a1,s4
    8000193c:	00090513          	mv	a0,s2
    80001940:	dbdff0ef          	jal	ra,800016fc <thread_entry>
    80001944:	03f10993          	addi	s3,sp,63
    80001948:	00000593          	li	a1,0
    8000194c:	00000513          	li	a0,0
    80001950:	fc09f993          	andi	s3,s3,-64
    80001954:	00000497          	auipc	s1,0x0
    80001958:	44448493          	addi	s1,s1,1092 # 80001d98 <counter_names>
    8000195c:	190000ef          	jal	ra,80001aec <main>
    80001960:	00050b13          	mv	s6,a0
    80001964:	00000417          	auipc	s0,0x0
    80001968:	41440413          	addi	s0,s0,1044 # 80001d78 <counters>
    8000196c:	00048a13          	mv	s4,s1
    80001970:	00098913          	mv	s2,s3
    80001974:	00000a97          	auipc	s5,0x0
    80001978:	3f4a8a93          	addi	s5,s5,1012 # 80001d68 <main+0x27c>
    8000197c:	00043683          	ld	a3,0(s0)
    80001980:	02069263          	bnez	a3,800019a4 <_init+0xcc>
    80001984:	00840413          	addi	s0,s0,8
    80001988:	00848493          	addi	s1,s1,8
    8000198c:	ff4418e3          	bne	s0,s4,8000197c <_init+0xa4>
    80001990:	01298663          	beq	s3,s2,8000199c <_init+0xc4>
    80001994:	00098513          	mv	a0,s3
    80001998:	ce5ff0ef          	jal	ra,8000167c <printstr>
    8000199c:	000b0513          	mv	a0,s6
    800019a0:	c99ff0ef          	jal	ra,80001638 <tohost_exit>
    800019a4:	0004b603          	ld	a2,0(s1)
    800019a8:	00090513          	mv	a0,s2
    800019ac:	000a8593          	mv	a1,s5
    800019b0:	e01ff0ef          	jal	ra,800017b0 <sprintf>
    800019b4:	00a90933          	add	s2,s2,a0
    800019b8:	fcdff06f          	j	80001984 <_init+0xac>

00000000800019bc <strlen>:
    800019bc:	00054783          	lbu	a5,0(a0)
    800019c0:	00050713          	mv	a4,a0
    800019c4:	00078c63          	beqz	a5,800019dc <strlen+0x20>
    800019c8:	00150513          	addi	a0,a0,1
    800019cc:	00054783          	lbu	a5,0(a0)
    800019d0:	fe079ce3          	bnez	a5,800019c8 <strlen+0xc>
    800019d4:	40e50533          	sub	a0,a0,a4
    800019d8:	00008067          	ret
    800019dc:	00000513          	li	a0,0
    800019e0:	00008067          	ret

00000000800019e4 <strnlen>:
    800019e4:	00050713          	mv	a4,a0
    800019e8:	02058663          	beqz	a1,80001a14 <strnlen+0x30>
    800019ec:	00054783          	lbu	a5,0(a0)
    800019f0:	02078263          	beqz	a5,80001a14 <strnlen+0x30>
    800019f4:	00b505b3          	add	a1,a0,a1
    800019f8:	00c0006f          	j	80001a04 <strnlen+0x20>
    800019fc:	00054783          	lbu	a5,0(a0)
    80001a00:	00078663          	beqz	a5,80001a0c <strnlen+0x28>
    80001a04:	00150513          	addi	a0,a0,1
    80001a08:	feb51ae3          	bne	a0,a1,800019fc <strnlen+0x18>
    80001a0c:	40e50533          	sub	a0,a0,a4
    80001a10:	00008067          	ret
    80001a14:	00000513          	li	a0,0
    80001a18:	00008067          	ret

0000000080001a1c <strcmp>:
    80001a1c:	00150513          	addi	a0,a0,1
    80001a20:	fff54783          	lbu	a5,-1(a0)
    80001a24:	00158593          	addi	a1,a1,1
    80001a28:	fff5c703          	lbu	a4,-1(a1)
    80001a2c:	00078a63          	beqz	a5,80001a40 <strcmp+0x24>
    80001a30:	fee786e3          	beq	a5,a4,80001a1c <strcmp>
    80001a34:	0007851b          	sext.w	a0,a5
    80001a38:	40e5053b          	subw	a0,a0,a4
    80001a3c:	00008067          	ret
    80001a40:	00000513          	li	a0,0
    80001a44:	ff5ff06f          	j	80001a38 <strcmp+0x1c>

0000000080001a48 <strcpy>:
    80001a48:	00050793          	mv	a5,a0
    80001a4c:	00158593          	addi	a1,a1,1
    80001a50:	fff5c703          	lbu	a4,-1(a1)
    80001a54:	00178793          	addi	a5,a5,1
    80001a58:	fee78fa3          	sb	a4,-1(a5)
    80001a5c:	fe0718e3          	bnez	a4,80001a4c <strcpy+0x4>
    80001a60:	00008067          	ret

0000000080001a64 <atol>:
    80001a64:	00054783          	lbu	a5,0(a0)
    80001a68:	02000713          	li	a4,32
    80001a6c:	00e79863          	bne	a5,a4,80001a7c <atol+0x18>
    80001a70:	00150513          	addi	a0,a0,1
    80001a74:	00054783          	lbu	a5,0(a0)
    80001a78:	fee78ce3          	beq	a5,a4,80001a70 <atol+0xc>
    80001a7c:	fd57871b          	addiw	a4,a5,-43
    80001a80:	0fd77713          	andi	a4,a4,253
    80001a84:	04070263          	beqz	a4,80001ac8 <atol+0x64>
    80001a88:	00054683          	lbu	a3,0(a0)
    80001a8c:	00050793          	mv	a5,a0
    80001a90:	00000613          	li	a2,0
    80001a94:	04068863          	beqz	a3,80001ae4 <atol+0x80>
    80001a98:	00000513          	li	a0,0
    80001a9c:	00178793          	addi	a5,a5,1
    80001aa0:	fd06859b          	addiw	a1,a3,-48
    80001aa4:	00251713          	slli	a4,a0,0x2
    80001aa8:	0007c683          	lbu	a3,0(a5)
    80001aac:	00a70533          	add	a0,a4,a0
    80001ab0:	00151513          	slli	a0,a0,0x1
    80001ab4:	00a58533          	add	a0,a1,a0
    80001ab8:	fe0692e3          	bnez	a3,80001a9c <atol+0x38>
    80001abc:	00060463          	beqz	a2,80001ac4 <atol+0x60>
    80001ac0:	40a00533          	neg	a0,a0
    80001ac4:	00008067          	ret
    80001ac8:	00154683          	lbu	a3,1(a0)
    80001acc:	fd378793          	addi	a5,a5,-45
    80001ad0:	0017b613          	seqz	a2,a5
    80001ad4:	00150793          	addi	a5,a0,1
    80001ad8:	fc0690e3          	bnez	a3,80001a98 <atol+0x34>
    80001adc:	00000513          	li	a0,0
    80001ae0:	fddff06f          	j	80001abc <atol+0x58>
    80001ae4:	00000513          	li	a0,0
    80001ae8:	00008067          	ret

Disassembly of section .text.startup:

0000000080001aec <main>:
    80001aec:	fffff337          	lui	t1,0xfffff
    80001af0:	81010113          	addi	sp,sp,-2032
    80001af4:	8a030313          	addi	t1,t1,-1888 # ffffffffffffe8a0 <__global_pointer$+0xffffffff7fffc328>
    80001af8:	000027b7          	lui	a5,0x2
    80001afc:	7e113423          	sd	ra,2024(sp)
    80001b00:	ffffe737          	lui	a4,0xffffe
    80001b04:	00610133          	add	sp,sp,t1
    80001b08:	f4078793          	addi	a5,a5,-192 # 1f40 <_tbss_end+0x1efc>
    80001b0c:	002787b3          	add	a5,a5,sp
    80001b10:	0c070713          	addi	a4,a4,192 # ffffffffffffe0c0 <__global_pointer$+0xffffffff7fffbb48>
    80001b14:	00e78733          	add	a4,a5,a4
    80001b18:	3e800693          	li	a3,1000
    80001b1c:	00000793          	li	a5,0
    80001b20:	00f72023          	sw	a5,0(a4)
    80001b24:	0017879b          	addiw	a5,a5,1
    80001b28:	00470713          	addi	a4,a4,4
    80001b2c:	fed79ae3          	bne	a5,a3,80001b20 <main+0x34>
    80001b30:	00100513          	li	a0,1
    80001b34:	a41ff0ef          	jal	ra,80001574 <setStats>
    80001b38:	00002737          	lui	a4,0x2
    80001b3c:	f4070793          	addi	a5,a4,-192 # 1f40 <_tbss_end+0x1efc>
    80001b40:	fffff5b7          	lui	a1,0xfffff
    80001b44:	002787b3          	add	a5,a5,sp
    80001b48:	06058593          	addi	a1,a1,96 # fffffffffffff060 <__global_pointer$+0xffffffff7fffcae8>
    80001b4c:	00b785b3          	add	a1,a5,a1
    80001b50:	ffffe537          	lui	a0,0xffffe
    80001b54:	f4070793          	addi	a5,a4,-192
    80001b58:	002787b3          	add	a5,a5,sp
    80001b5c:	0c050513          	addi	a0,a0,192 # ffffffffffffe0c0 <__global_pointer$+0xffffffff7fffbb48>
    80001b60:	00a78533          	add	a0,a5,a0
    80001b64:	00200613          	li	a2,2
    80001b68:	ce0ff0ef          	jal	ra,80001048 <simple>
    80001b6c:	00000513          	li	a0,0
    80001b70:	a05ff0ef          	jal	ra,80001574 <setStats>
    80001b74:	00001337          	lui	t1,0x1
    80001b78:	76030313          	addi	t1,t1,1888 # 1760 <_tbss_end+0x171c>
    80001b7c:	00610133          	add	sp,sp,t1
    80001b80:	7e813083          	ld	ra,2024(sp)
    80001b84:	00000513          	li	a0,0
    80001b88:	7f010113          	addi	sp,sp,2032
    80001b8c:	00008067          	ret
    80001b90:	ff010113          	addi	sp,sp,-16
    80001b94:	00000517          	auipc	a0,0x0
    80001b98:	1bc50513          	addi	a0,a0,444 # 80001d50 <main+0x264>
    80001b9c:	00113423          	sd	ra,8(sp)
    80001ba0:	addff0ef          	jal	ra,8000167c <printstr>
    80001ba4:	00813083          	ld	ra,8(sp)
    80001ba8:	fff00513          	li	a0,-1
    80001bac:	01010113          	addi	sp,sp,16
    80001bb0:	00008067          	ret
